# https://github.com/0n1shi/mipsemu

# trace
------------------------------------------------------------
0x00000000:	27 BD FF E0 		addiu   sp,sp,-32
0x00000004:	AF BF 00 1C 		sw      ra,28(sp)
0x00000008:	AF BE 00 18 		sw      fp,24(sp)
0x0000000C:	03 A0 F0 21 		addu    fp,sp,zero
0x00000010:	24 04 00 0A 		addiu   a0,zero,10
0x00000014:	0C 00 00 11 		jal     0x00000044
0x00000044:	27 BD FF D8 		addiu   sp,sp,-40
0x00000048:	AF BF 00 24 		sw      ra,36(sp)
0x0000004C:	AF BE 00 20 		sw      fp,32(sp)
0x00000050:	AF B0 00 1C 		sw      s0,28(sp)
0x00000054:	03 A0 F0 21 		addu    fp,sp,zero
0x00000058:	AF C4 00 28 		sw      a0,40(fp)
0x0000005C:	8F C2 00 28 		lw      v0,40(fp)
0x00000060:	00 20 08 25 		or      at,at,zero
0x00000064:	14 40 00 04 		bne     v0,zero,16
0x00000078:	8F C3 00 28 		lw      v1,40(fp)
0x0000007C:	24 02 00 01 		addiu   v0,zero,1
0x00000080:	14 62 00 04 		bne     v1,v0,16
0x00000094:	8F C2 00 28 		lw      v0,40(fp)
0x00000098:	00 20 08 25 		or      at,at,zero
0x0000009C:	24 42 FF FF 		addiu   v0,v0,-1
0x000000A0:	00 40 20 21 		addu    a0,v0,zero
0x000000A4:	0C 00 00 11 		jal     0x00000044
0x00000044:	27 BD FF D8 		addiu   sp,sp,-40
0x00000048:	AF BF 00 24 		sw      ra,36(sp)
0x0000004C:	AF BE 00 20 		sw      fp,32(sp)
0x00000050:	AF B0 00 1C 		sw      s0,28(sp)
0x00000054:	03 A0 F0 21 		addu    fp,sp,zero
0x00000058:	AF C4 00 28 		sw      a0,40(fp)
0x0000005C:	8F C2 00 28 		lw      v0,40(fp)
0x00000060:	00 20 08 25 		or      at,at,zero
0x00000064:	14 40 00 04 		bne     v0,zero,16
0x00000078:	8F C3 00 28 		lw      v1,40(fp)
0x0000007C:	24 02 00 01 		addiu   v0,zero,1
0x00000080:	14 62 00 04 		bne     v1,v0,16
0x00000094:	8F C2 00 28 		lw      v0,40(fp)
0x00000098:	00 20 08 25 		or      at,at,zero
0x0000009C:	24 42 FF FF 		addiu   v0,v0,-1
0x000000A0:	00 40 20 21 		addu    a0,v0,zero
0x000000A4:	0C 00 00 11 		jal     0x00000044
0x00000044:	27 BD FF D8 		addiu   sp,sp,-40
0x00000048:	AF BF 00 24 		sw      ra,36(sp)
0x0000004C:	AF BE 00 20 		sw      fp,32(sp)
0x00000050:	AF B0 00 1C 		sw      s0,28(sp)
0x00000054:	03 A0 F0 21 		addu    fp,sp,zero
0x00000058:	AF C4 00 28 		sw      a0,40(fp)
0x0000005C:	8F C2 00 28 		lw      v0,40(fp)
0x00000060:	00 20 08 25 		or      at,at,zero
0x00000064:	14 40 00 04 		bne     v0,zero,16
0x00000078:	8F C3 00 28 		lw      v1,40(fp)
0x0000007C:	24 02 00 01 		addiu   v0,zero,1
0x00000080:	14 62 00 04 		bne     v1,v0,16
0x00000094:	8F C2 00 28 		lw      v0,40(fp)
0x00000098:	00 20 08 25 		or      at,at,zero
0x0000009C:	24 42 FF FF 		addiu   v0,v0,-1
0x000000A0:	00 40 20 21 		addu    a0,v0,zero
0x000000A4:	0C 00 00 11 		jal     0x00000044
0x00000044:	27 BD FF D8 		addiu   sp,sp,-40
0x00000048:	AF BF 00 24 		sw      ra,36(sp)
0x0000004C:	AF BE 00 20 		sw      fp,32(sp)
0x00000050:	AF B0 00 1C 		sw      s0,28(sp)
0x00000054:	03 A0 F0 21 		addu    fp,sp,zero
0x00000058:	AF C4 00 28 		sw      a0,40(fp)
0x0000005C:	8F C2 00 28 		lw      v0,40(fp)
0x00000060:	00 20 08 25 		or      at,at,zero
0x00000064:	14 40 00 04 		bne     v0,zero,16
0x00000078:	8F C3 00 28 		lw      v1,40(fp)
0x0000007C:	24 02 00 01 		addiu   v0,zero,1
0x00000080:	14 62 00 04 		bne     v1,v0,16
0x00000094:	8F C2 00 28 		lw      v0,40(fp)
0x00000098:	00 20 08 25 		or      at,at,zero
0x0000009C:	24 42 FF FF 		addiu   v0,v0,-1
0x000000A0:	00 40 20 21 		addu    a0,v0,zero
0x000000A4:	0C 00 00 11 		jal     0x00000044
0x00000044:	27 BD FF D8 		addiu   sp,sp,-40
0x00000048:	AF BF 00 24 		sw      ra,36(sp)
0x0000004C:	AF BE 00 20 		sw      fp,32(sp)
0x00000050:	AF B0 00 1C 		sw      s0,28(sp)
0x00000054:	03 A0 F0 21 		addu    fp,sp,zero
0x00000058:	AF C4 00 28 		sw      a0,40(fp)
0x0000005C:	8F C2 00 28 		lw      v0,40(fp)
0x00000060:	00 20 08 25 		or      at,at,zero
0x00000064:	14 40 00 04 		bne     v0,zero,16
0x00000078:	8F C3 00 28 		lw      v1,40(fp)
0x0000007C:	24 02 00 01 		addiu   v0,zero,1
0x00000080:	14 62 00 04 		bne     v1,v0,16
0x00000094:	8F C2 00 28 		lw      v0,40(fp)
0x00000098:	00 20 08 25 		or      at,at,zero
0x0000009C:	24 42 FF FF 		addiu   v0,v0,-1
0x000000A0:	00 40 20 21 		addu    a0,v0,zero
0x000000A4:	0C 00 00 11 		jal     0x00000044
0x00000044:	27 BD FF D8 		addiu   sp,sp,-40
0x00000048:	AF BF 00 24 		sw      ra,36(sp)
0x0000004C:	AF BE 00 20 		sw      fp,32(sp)
0x00000050:	AF B0 00 1C 		sw      s0,28(sp)
0x00000054:	03 A0 F0 21 		addu    fp,sp,zero
0x00000058:	AF C4 00 28 		sw      a0,40(fp)
0x0000005C:	8F C2 00 28 		lw      v0,40(fp)
0x00000060:	00 20 08 25 		or      at,at,zero
0x00000064:	14 40 00 04 		bne     v0,zero,16
0x00000078:	8F C3 00 28 		lw      v1,40(fp)
0x0000007C:	24 02 00 01 		addiu   v0,zero,1
0x00000080:	14 62 00 04 		bne     v1,v0,16
0x00000094:	8F C2 00 28 		lw      v0,40(fp)
0x00000098:	00 20 08 25 		or      at,at,zero
0x0000009C:	24 42 FF FF 		addiu   v0,v0,-1
0x000000A0:	00 40 20 21 		addu    a0,v0,zero
0x000000A4:	0C 00 00 11 		jal     0x00000044
0x00000044:	27 BD FF D8 		addiu   sp,sp,-40
0x00000048:	AF BF 00 24 		sw      ra,36(sp)
0x0000004C:	AF BE 00 20 		sw      fp,32(sp)
0x00000050:	AF B0 00 1C 		sw      s0,28(sp)
0x00000054:	03 A0 F0 21 		addu    fp,sp,zero
0x00000058:	AF C4 00 28 		sw      a0,40(fp)
0x0000005C:	8F C2 00 28 		lw      v0,40(fp)
0x00000060:	00 20 08 25 		or      at,at,zero
0x00000064:	14 40 00 04 		bne     v0,zero,16
0x00000078:	8F C3 00 28 		lw      v1,40(fp)
0x0000007C:	24 02 00 01 		addiu   v0,zero,1
0x00000080:	14 62 00 04 		bne     v1,v0,16
0x00000094:	8F C2 00 28 		lw      v0,40(fp)
0x00000098:	00 20 08 25 		or      at,at,zero
0x0000009C:	24 42 FF FF 		addiu   v0,v0,-1
0x000000A0:	00 40 20 21 		addu    a0,v0,zero
0x000000A4:	0C 00 00 11 		jal     0x00000044
0x00000044:	27 BD FF D8 		addiu   sp,sp,-40
0x00000048:	AF BF 00 24 		sw      ra,36(sp)
0x0000004C:	AF BE 00 20 		sw      fp,32(sp)
0x00000050:	AF B0 00 1C 		sw      s0,28(sp)
0x00000054:	03 A0 F0 21 		addu    fp,sp,zero
0x00000058:	AF C4 00 28 		sw      a0,40(fp)
0x0000005C:	8F C2 00 28 		lw      v0,40(fp)
0x00000060:	00 20 08 25 		or      at,at,zero
0x00000064:	14 40 00 04 		bne     v0,zero,16
0x00000078:	8F C3 00 28 		lw      v1,40(fp)
0x0000007C:	24 02 00 01 		addiu   v0,zero,1
0x00000080:	14 62 00 04 		bne     v1,v0,16
0x00000094:	8F C2 00 28 		lw      v0,40(fp)
0x00000098:	00 20 08 25 		or      at,at,zero
0x0000009C:	24 42 FF FF 		addiu   v0,v0,-1
0x000000A0:	00 40 20 21 		addu    a0,v0,zero
0x000000A4:	0C 00 00 11 		jal     0x00000044
0x00000044:	27 BD FF D8 		addiu   sp,sp,-40
0x00000048:	AF BF 00 24 		sw      ra,36(sp)
0x0000004C:	AF BE 00 20 		sw      fp,32(sp)
0x00000050:	AF B0 00 1C 		sw      s0,28(sp)
0x00000054:	03 A0 F0 21 		addu    fp,sp,zero
0x00000058:	AF C4 00 28 		sw      a0,40(fp)
0x0000005C:	8F C2 00 28 		lw      v0,40(fp)
0x00000060:	00 20 08 25 		or      at,at,zero
0x00000064:	14 40 00 04 		bne     v0,zero,16
0x00000078:	8F C3 00 28 		lw      v1,40(fp)
0x0000007C:	24 02 00 01 		addiu   v0,zero,1
0x00000080:	14 62 00 04 		bne     v1,v0,16
0x00000094:	8F C2 00 28 		lw      v0,40(fp)
0x00000098:	00 20 08 25 		or      at,at,zero
0x0000009C:	24 42 FF FF 		addiu   v0,v0,-1
0x000000A0:	00 40 20 21 		addu    a0,v0,zero
0x000000A4:	0C 00 00 11 		jal     0x00000044
0x00000044:	27 BD FF D8 		addiu   sp,sp,-40
0x00000048:	AF BF 00 24 		sw      ra,36(sp)
0x0000004C:	AF BE 00 20 		sw      fp,32(sp)
0x00000050:	AF B0 00 1C 		sw      s0,28(sp)
0x00000054:	03 A0 F0 21 		addu    fp,sp,zero
0x00000058:	AF C4 00 28 		sw      a0,40(fp)
0x0000005C:	8F C2 00 28 		lw      v0,40(fp)
0x00000060:	00 20 08 25 		or      at,at,zero
0x00000064:	14 40 00 04 		bne     v0,zero,16
0x00000078:	8F C3 00 28 		lw      v1,40(fp)
0x0000007C:	24 02 00 01 		addiu   v0,zero,1
0x00000080:	14 62 00 04 		bne     v1,v0,16
0x00000084:	00 20 08 25 		or      at,at,zero
0x00000088:	24 02 00 01 		addiu   v0,zero,1
0x0000008C:	08 00 00 33 		j       0x000000CC
0x000000CC:	03 C0 E8 21 		addu    sp,fp,zero
0x000000D0:	8F BF 00 24 		lw      ra,36(sp)
0x000000D4:	8F BE 00 20 		lw      fp,32(sp)
0x000000D8:	8F B0 00 1C 		lw      s0,28(sp)
0x000000DC:	27 BD 00 28 		addiu   sp,sp,40
0x000000E0:	03 E0 00 08 		jr      ra
0x000000A8:	00 20 08 25 		or      at,at,zero
0x000000AC:	00 40 80 21 		addu    s0,v0,zero
0x000000B0:	8F C2 00 28 		lw      v0,40(fp)
0x000000B4:	00 20 08 25 		or      at,at,zero
0x000000B8:	24 42 FF FE 		addiu   v0,v0,-2
0x000000BC:	00 40 20 21 		addu    a0,v0,zero
0x000000C0:	0C 00 00 11 		jal     0x00000044
0x00000044:	27 BD FF D8 		addiu   sp,sp,-40
0x00000048:	AF BF 00 24 		sw      ra,36(sp)
0x0000004C:	AF BE 00 20 		sw      fp,32(sp)
0x00000050:	AF B0 00 1C 		sw      s0,28(sp)
0x00000054:	03 A0 F0 21 		addu    fp,sp,zero
0x00000058:	AF C4 00 28 		sw      a0,40(fp)
0x0000005C:	8F C2 00 28 		lw      v0,40(fp)
0x00000060:	00 20 08 25 		or      at,at,zero
0x00000064:	14 40 00 04 		bne     v0,zero,16
0x00000068:	00 20 08 25 		or      at,at,zero
0x0000006C:	00 00 10 21 		addu    v0,zero,zero
0x00000070:	08 00 00 33 		j       0x000000CC
0x000000CC:	03 C0 E8 21 		addu    sp,fp,zero
0x000000D0:	8F BF 00 24 		lw      ra,36(sp)
0x000000D4:	8F BE 00 20 		lw      fp,32(sp)
0x000000D8:	8F B0 00 1C 		lw      s0,28(sp)
0x000000DC:	27 BD 00 28 		addiu   sp,sp,40
0x000000E0:	03 E0 00 08 		jr      ra
0x000000C4:	00 20 08 25 		or      at,at,zero
0x000000C8:	02 02 10 21 		addu    v0,s0,v0
0x000000CC:	03 C0 E8 21 		addu    sp,fp,zero
0x000000D0:	8F BF 00 24 		lw      ra,36(sp)
0x000000D4:	8F BE 00 20 		lw      fp,32(sp)
0x000000D8:	8F B0 00 1C 		lw      s0,28(sp)
0x000000DC:	27 BD 00 28 		addiu   sp,sp,40
0x000000E0:	03 E0 00 08 		jr      ra
0x000000A8:	00 20 08 25 		or      at,at,zero
0x000000AC:	00 40 80 21 		addu    s0,v0,zero
0x000000B0:	8F C2 00 28 		lw      v0,40(fp)
0x000000B4:	00 20 08 25 		or      at,at,zero
0x000000B8:	24 42 FF FE 		addiu   v0,v0,-2
0x000000BC:	00 40 20 21 		addu    a0,v0,zero
0x000000C0:	0C 00 00 11 		jal     0x00000044
0x00000044:	27 BD FF D8 		addiu   sp,sp,-40
0x00000048:	AF BF 00 24 		sw      ra,36(sp)
0x0000004C:	AF BE 00 20 		sw      fp,32(sp)
0x00000050:	AF B0 00 1C 		sw      s0,28(sp)
0x00000054:	03 A0 F0 21 		addu    fp,sp,zero
0x00000058:	AF C4 00 28 		sw      a0,40(fp)
0x0000005C:	8F C2 00 28 		lw      v0,40(fp)
0x00000060:	00 20 08 25 		or      at,at,zero
0x00000064:	14 40 00 04 		bne     v0,zero,16
0x00000078:	8F C3 00 28 		lw      v1,40(fp)
0x0000007C:	24 02 00 01 		addiu   v0,zero,1
0x00000080:	14 62 00 04 		bne     v1,v0,16
0x00000084:	00 20 08 25 		or      at,at,zero
0x00000088:	24 02 00 01 		addiu   v0,zero,1
0x0000008C:	08 00 00 33 		j       0x000000CC
0x000000CC:	03 C0 E8 21 		addu    sp,fp,zero
0x000000D0:	8F BF 00 24 		lw      ra,36(sp)
0x000000D4:	8F BE 00 20 		lw      fp,32(sp)
0x000000D8:	8F B0 00 1C 		lw      s0,28(sp)
0x000000DC:	27 BD 00 28 		addiu   sp,sp,40
0x000000E0:	03 E0 00 08 		jr      ra
0x000000C4:	00 20 08 25 		or      at,at,zero
0x000000C8:	02 02 10 21 		addu    v0,s0,v0
0x000000CC:	03 C0 E8 21 		addu    sp,fp,zero
0x000000D0:	8F BF 00 24 		lw      ra,36(sp)
0x000000D4:	8F BE 00 20 		lw      fp,32(sp)
0x000000D8:	8F B0 00 1C 		lw      s0,28(sp)
0x000000DC:	27 BD 00 28 		addiu   sp,sp,40
0x000000E0:	03 E0 00 08 		jr      ra
0x000000A8:	00 20 08 25 		or      at,at,zero
0x000000AC:	00 40 80 21 		addu    s0,v0,zero
0x000000B0:	8F C2 00 28 		lw      v0,40(fp)
0x000000B4:	00 20 08 25 		or      at,at,zero
0x000000B8:	24 42 FF FE 		addiu   v0,v0,-2
0x000000BC:	00 40 20 21 		addu    a0,v0,zero
0x000000C0:	0C 00 00 11 		jal     0x00000044
0x00000044:	27 BD FF D8 		addiu   sp,sp,-40
0x00000048:	AF BF 00 24 		sw      ra,36(sp)
0x0000004C:	AF BE 00 20 		sw      fp,32(sp)
0x00000050:	AF B0 00 1C 		sw      s0,28(sp)
0x00000054:	03 A0 F0 21 		addu    fp,sp,zero
0x00000058:	AF C4 00 28 		sw      a0,40(fp)
0x0000005C:	8F C2 00 28 		lw      v0,40(fp)
0x00000060:	00 20 08 25 		or      at,at,zero
0x00000064:	14 40 00 04 		bne     v0,zero,16
0x00000078:	8F C3 00 28 		lw      v1,40(fp)
0x0000007C:	24 02 00 01 		addiu   v0,zero,1
0x00000080:	14 62 00 04 		bne     v1,v0,16
0x00000094:	8F C2 00 28 		lw      v0,40(fp)
0x00000098:	00 20 08 25 		or      at,at,zero
0x0000009C:	24 42 FF FF 		addiu   v0,v0,-1
0x000000A0:	00 40 20 21 		addu    a0,v0,zero
0x000000A4:	0C 00 00 11 		jal     0x00000044
0x00000044:	27 BD FF D8 		addiu   sp,sp,-40
0x00000048:	AF BF 00 24 		sw      ra,36(sp)
0x0000004C:	AF BE 00 20 		sw      fp,32(sp)
0x00000050:	AF B0 00 1C 		sw      s0,28(sp)
0x00000054:	03 A0 F0 21 		addu    fp,sp,zero
0x00000058:	AF C4 00 28 		sw      a0,40(fp)
0x0000005C:	8F C2 00 28 		lw      v0,40(fp)
0x00000060:	00 20 08 25 		or      at,at,zero
0x00000064:	14 40 00 04 		bne     v0,zero,16
0x00000078:	8F C3 00 28 		lw      v1,40(fp)
0x0000007C:	24 02 00 01 		addiu   v0,zero,1
0x00000080:	14 62 00 04 		bne     v1,v0,16
0x00000084:	00 20 08 25 		or      at,at,zero
0x00000088:	24 02 00 01 		addiu   v0,zero,1
0x0000008C:	08 00 00 33 		j       0x000000CC
0x000000CC:	03 C0 E8 21 		addu    sp,fp,zero
0x000000D0:	8F BF 00 24 		lw      ra,36(sp)
0x000000D4:	8F BE 00 20 		lw      fp,32(sp)
0x000000D8:	8F B0 00 1C 		lw      s0,28(sp)
0x000000DC:	27 BD 00 28 		addiu   sp,sp,40
0x000000E0:	03 E0 00 08 		jr      ra
0x000000A8:	00 20 08 25 		or      at,at,zero
0x000000AC:	00 40 80 21 		addu    s0,v0,zero
0x000000B0:	8F C2 00 28 		lw      v0,40(fp)
0x000000B4:	00 20 08 25 		or      at,at,zero
0x000000B8:	24 42 FF FE 		addiu   v0,v0,-2
0x000000BC:	00 40 20 21 		addu    a0,v0,zero
0x000000C0:	0C 00 00 11 		jal     0x00000044
0x00000044:	27 BD FF D8 		addiu   sp,sp,-40
0x00000048:	AF BF 00 24 		sw      ra,36(sp)
0x0000004C:	AF BE 00 20 		sw      fp,32(sp)
0x00000050:	AF B0 00 1C 		sw      s0,28(sp)
0x00000054:	03 A0 F0 21 		addu    fp,sp,zero
0x00000058:	AF C4 00 28 		sw      a0,40(fp)
0x0000005C:	8F C2 00 28 		lw      v0,40(fp)
0x00000060:	00 20 08 25 		or      at,at,zero
0x00000064:	14 40 00 04 		bne     v0,zero,16
0x00000068:	00 20 08 25 		or      at,at,zero
0x0000006C:	00 00 10 21 		addu    v0,zero,zero
0x00000070:	08 00 00 33 		j       0x000000CC
0x000000CC:	03 C0 E8 21 		addu    sp,fp,zero
0x000000D0:	8F BF 00 24 		lw      ra,36(sp)
0x000000D4:	8F BE 00 20 		lw      fp,32(sp)
0x000000D8:	8F B0 00 1C 		lw      s0,28(sp)
0x000000DC:	27 BD 00 28 		addiu   sp,sp,40
0x000000E0:	03 E0 00 08 		jr      ra
0x000000C4:	00 20 08 25 		or      at,at,zero
0x000000C8:	02 02 10 21 		addu    v0,s0,v0
0x000000CC:	03 C0 E8 21 		addu    sp,fp,zero
0x000000D0:	8F BF 00 24 		lw      ra,36(sp)
0x000000D4:	8F BE 00 20 		lw      fp,32(sp)
0x000000D8:	8F B0 00 1C 		lw      s0,28(sp)
0x000000DC:	27 BD 00 28 		addiu   sp,sp,40
0x000000E0:	03 E0 00 08 		jr      ra
0x000000C4:	00 20 08 25 		or      at,at,zero
0x000000C8:	02 02 10 21 		addu    v0,s0,v0
0x000000CC:	03 C0 E8 21 		addu    sp,fp,zero
0x000000D0:	8F BF 00 24 		lw      ra,36(sp)
0x000000D4:	8F BE 00 20 		lw      fp,32(sp)
0x000000D8:	8F B0 00 1C 		lw      s0,28(sp)
0x000000DC:	27 BD 00 28 		addiu   sp,sp,40
0x000000E0:	03 E0 00 08 		jr      ra
0x000000A8:	00 20 08 25 		or      at,at,zero
0x000000AC:	00 40 80 21 		addu    s0,v0,zero
0x000000B0:	8F C2 00 28 		lw      v0,40(fp)
0x000000B4:	00 20 08 25 		or      at,at,zero
0x000000B8:	24 42 FF FE 		addiu   v0,v0,-2
0x000000BC:	00 40 20 21 		addu    a0,v0,zero
0x000000C0:	0C 00 00 11 		jal     0x00000044
0x00000044:	27 BD FF D8 		addiu   sp,sp,-40
0x00000048:	AF BF 00 24 		sw      ra,36(sp)
0x0000004C:	AF BE 00 20 		sw      fp,32(sp)
0x00000050:	AF B0 00 1C 		sw      s0,28(sp)
0x00000054:	03 A0 F0 21 		addu    fp,sp,zero
0x00000058:	AF C4 00 28 		sw      a0,40(fp)
0x0000005C:	8F C2 00 28 		lw      v0,40(fp)
0x00000060:	00 20 08 25 		or      at,at,zero
0x00000064:	14 40 00 04 		bne     v0,zero,16
0x00000078:	8F C3 00 28 		lw      v1,40(fp)
0x0000007C:	24 02 00 01 		addiu   v0,zero,1
0x00000080:	14 62 00 04 		bne     v1,v0,16
0x00000094:	8F C2 00 28 		lw      v0,40(fp)
0x00000098:	00 20 08 25 		or      at,at,zero
0x0000009C:	24 42 FF FF 		addiu   v0,v0,-1
0x000000A0:	00 40 20 21 		addu    a0,v0,zero
0x000000A4:	0C 00 00 11 		jal     0x00000044
0x00000044:	27 BD FF D8 		addiu   sp,sp,-40
0x00000048:	AF BF 00 24 		sw      ra,36(sp)
0x0000004C:	AF BE 00 20 		sw      fp,32(sp)
0x00000050:	AF B0 00 1C 		sw      s0,28(sp)
0x00000054:	03 A0 F0 21 		addu    fp,sp,zero
0x00000058:	AF C4 00 28 		sw      a0,40(fp)
0x0000005C:	8F C2 00 28 		lw      v0,40(fp)
0x00000060:	00 20 08 25 		or      at,at,zero
0x00000064:	14 40 00 04 		bne     v0,zero,16
0x00000078:	8F C3 00 28 		lw      v1,40(fp)
0x0000007C:	24 02 00 01 		addiu   v0,zero,1
0x00000080:	14 62 00 04 		bne     v1,v0,16
0x00000094:	8F C2 00 28 		lw      v0,40(fp)
0x00000098:	00 20 08 25 		or      at,at,zero
0x0000009C:	24 42 FF FF 		addiu   v0,v0,-1
0x000000A0:	00 40 20 21 		addu    a0,v0,zero
0x000000A4:	0C 00 00 11 		jal     0x00000044
0x00000044:	27 BD FF D8 		addiu   sp,sp,-40
0x00000048:	AF BF 00 24 		sw      ra,36(sp)
0x0000004C:	AF BE 00 20 		sw      fp,32(sp)
0x00000050:	AF B0 00 1C 		sw      s0,28(sp)
0x00000054:	03 A0 F0 21 		addu    fp,sp,zero
0x00000058:	AF C4 00 28 		sw      a0,40(fp)
0x0000005C:	8F C2 00 28 		lw      v0,40(fp)
0x00000060:	00 20 08 25 		or      at,at,zero
0x00000064:	14 40 00 04 		bne     v0,zero,16
0x00000078:	8F C3 00 28 		lw      v1,40(fp)
0x0000007C:	24 02 00 01 		addiu   v0,zero,1
0x00000080:	14 62 00 04 		bne     v1,v0,16
0x00000084:	00 20 08 25 		or      at,at,zero
0x00000088:	24 02 00 01 		addiu   v0,zero,1
0x0000008C:	08 00 00 33 		j       0x000000CC
0x000000CC:	03 C0 E8 21 		addu    sp,fp,zero
0x000000D0:	8F BF 00 24 		lw      ra,36(sp)
0x000000D4:	8F BE 00 20 		lw      fp,32(sp)
0x000000D8:	8F B0 00 1C 		lw      s0,28(sp)
0x000000DC:	27 BD 00 28 		addiu   sp,sp,40
0x000000E0:	03 E0 00 08 		jr      ra
0x000000A8:	00 20 08 25 		or      at,at,zero
0x000000AC:	00 40 80 21 		addu    s0,v0,zero
0x000000B0:	8F C2 00 28 		lw      v0,40(fp)
0x000000B4:	00 20 08 25 		or      at,at,zero
0x000000B8:	24 42 FF FE 		addiu   v0,v0,-2
0x000000BC:	00 40 20 21 		addu    a0,v0,zero
0x000000C0:	0C 00 00 11 		jal     0x00000044
0x00000044:	27 BD FF D8 		addiu   sp,sp,-40
0x00000048:	AF BF 00 24 		sw      ra,36(sp)
0x0000004C:	AF BE 00 20 		sw      fp,32(sp)
0x00000050:	AF B0 00 1C 		sw      s0,28(sp)
0x00000054:	03 A0 F0 21 		addu    fp,sp,zero
0x00000058:	AF C4 00 28 		sw      a0,40(fp)
0x0000005C:	8F C2 00 28 		lw      v0,40(fp)
0x00000060:	00 20 08 25 		or      at,at,zero
0x00000064:	14 40 00 04 		bne     v0,zero,16
0x00000068:	00 20 08 25 		or      at,at,zero
0x0000006C:	00 00 10 21 		addu    v0,zero,zero
0x00000070:	08 00 00 33 		j       0x000000CC
0x000000CC:	03 C0 E8 21 		addu    sp,fp,zero
0x000000D0:	8F BF 00 24 		lw      ra,36(sp)
0x000000D4:	8F BE 00 20 		lw      fp,32(sp)
0x000000D8:	8F B0 00 1C 		lw      s0,28(sp)
0x000000DC:	27 BD 00 28 		addiu   sp,sp,40
0x000000E0:	03 E0 00 08 		jr      ra
0x000000C4:	00 20 08 25 		or      at,at,zero
0x000000C8:	02 02 10 21 		addu    v0,s0,v0
0x000000CC:	03 C0 E8 21 		addu    sp,fp,zero
0x000000D0:	8F BF 00 24 		lw      ra,36(sp)
0x000000D4:	8F BE 00 20 		lw      fp,32(sp)
0x000000D8:	8F B0 00 1C 		lw      s0,28(sp)
0x000000DC:	27 BD 00 28 		addiu   sp,sp,40
0x000000E0:	03 E0 00 08 		jr      ra
0x000000A8:	00 20 08 25 		or      at,at,zero
0x000000AC:	00 40 80 21 		addu    s0,v0,zero
0x000000B0:	8F C2 00 28 		lw      v0,40(fp)
0x000000B4:	00 20 08 25 		or      at,at,zero
0x000000B8:	24 42 FF FE 		addiu   v0,v0,-2
0x000000BC:	00 40 20 21 		addu    a0,v0,zero
0x000000C0:	0C 00 00 11 		jal     0x00000044
0x00000044:	27 BD FF D8 		addiu   sp,sp,-40
0x00000048:	AF BF 00 24 		sw      ra,36(sp)
0x0000004C:	AF BE 00 20 		sw      fp,32(sp)
0x00000050:	AF B0 00 1C 		sw      s0,28(sp)
0x00000054:	03 A0 F0 21 		addu    fp,sp,zero
0x00000058:	AF C4 00 28 		sw      a0,40(fp)
0x0000005C:	8F C2 00 28 		lw      v0,40(fp)
0x00000060:	00 20 08 25 		or      at,at,zero
0x00000064:	14 40 00 04 		bne     v0,zero,16
0x00000078:	8F C3 00 28 		lw      v1,40(fp)
0x0000007C:	24 02 00 01 		addiu   v0,zero,1
0x00000080:	14 62 00 04 		bne     v1,v0,16
0x00000084:	00 20 08 25 		or      at,at,zero
0x00000088:	24 02 00 01 		addiu   v0,zero,1
0x0000008C:	08 00 00 33 		j       0x000000CC
0x000000CC:	03 C0 E8 21 		addu    sp,fp,zero
0x000000D0:	8F BF 00 24 		lw      ra,36(sp)
0x000000D4:	8F BE 00 20 		lw      fp,32(sp)
0x000000D8:	8F B0 00 1C 		lw      s0,28(sp)
0x000000DC:	27 BD 00 28 		addiu   sp,sp,40
0x000000E0:	03 E0 00 08 		jr      ra
0x000000C4:	00 20 08 25 		or      at,at,zero
0x000000C8:	02 02 10 21 		addu    v0,s0,v0
0x000000CC:	03 C0 E8 21 		addu    sp,fp,zero
0x000000D0:	8F BF 00 24 		lw      ra,36(sp)
0x000000D4:	8F BE 00 20 		lw      fp,32(sp)
0x000000D8:	8F B0 00 1C 		lw      s0,28(sp)
0x000000DC:	27 BD 00 28 		addiu   sp,sp,40
0x000000E0:	03 E0 00 08 		jr      ra
0x000000C4:	00 20 08 25 		or      at,at,zero
0x000000C8:	02 02 10 21 		addu    v0,s0,v0
0x000000CC:	03 C0 E8 21 		addu    sp,fp,zero
0x000000D0:	8F BF 00 24 		lw      ra,36(sp)
0x000000D4:	8F BE 00 20 		lw      fp,32(sp)
0x000000D8:	8F B0 00 1C 		lw      s0,28(sp)
0x000000DC:	27 BD 00 28 		addiu   sp,sp,40
0x000000E0:	03 E0 00 08 		jr      ra
0x000000A8:	00 20 08 25 		or      at,at,zero
0x000000AC:	00 40 80 21 		addu    s0,v0,zero
0x000000B0:	8F C2 00 28 		lw      v0,40(fp)
0x000000B4:	00 20 08 25 		or      at,at,zero
0x000000B8:	24 42 FF FE 		addiu   v0,v0,-2
0x000000BC:	00 40 20 21 		addu    a0,v0,zero
0x000000C0:	0C 00 00 11 		jal     0x00000044
0x00000044:	27 BD FF D8 		addiu   sp,sp,-40
0x00000048:	AF BF 00 24 		sw      ra,36(sp)
0x0000004C:	AF BE 00 20 		sw      fp,32(sp)
0x00000050:	AF B0 00 1C 		sw      s0,28(sp)
0x00000054:	03 A0 F0 21 		addu    fp,sp,zero
0x00000058:	AF C4 00 28 		sw      a0,40(fp)
0x0000005C:	8F C2 00 28 		lw      v0,40(fp)
0x00000060:	00 20 08 25 		or      at,at,zero
0x00000064:	14 40 00 04 		bne     v0,zero,16
0x00000078:	8F C3 00 28 		lw      v1,40(fp)
0x0000007C:	24 02 00 01 		addiu   v0,zero,1
0x00000080:	14 62 00 04 		bne     v1,v0,16
0x00000094:	8F C2 00 28 		lw      v0,40(fp)
0x00000098:	00 20 08 25 		or      at,at,zero
0x0000009C:	24 42 FF FF 		addiu   v0,v0,-1
0x000000A0:	00 40 20 21 		addu    a0,v0,zero
0x000000A4:	0C 00 00 11 		jal     0x00000044
0x00000044:	27 BD FF D8 		addiu   sp,sp,-40
0x00000048:	AF BF 00 24 		sw      ra,36(sp)
0x0000004C:	AF BE 00 20 		sw      fp,32(sp)
0x00000050:	AF B0 00 1C 		sw      s0,28(sp)
0x00000054:	03 A0 F0 21 		addu    fp,sp,zero
0x00000058:	AF C4 00 28 		sw      a0,40(fp)
0x0000005C:	8F C2 00 28 		lw      v0,40(fp)
0x00000060:	00 20 08 25 		or      at,at,zero
0x00000064:	14 40 00 04 		bne     v0,zero,16
0x00000078:	8F C3 00 28 		lw      v1,40(fp)
0x0000007C:	24 02 00 01 		addiu   v0,zero,1
0x00000080:	14 62 00 04 		bne     v1,v0,16
0x00000094:	8F C2 00 28 		lw      v0,40(fp)
0x00000098:	00 20 08 25 		or      at,at,zero
0x0000009C:	24 42 FF FF 		addiu   v0,v0,-1
0x000000A0:	00 40 20 21 		addu    a0,v0,zero
0x000000A4:	0C 00 00 11 		jal     0x00000044
0x00000044:	27 BD FF D8 		addiu   sp,sp,-40
0x00000048:	AF BF 00 24 		sw      ra,36(sp)
0x0000004C:	AF BE 00 20 		sw      fp,32(sp)
0x00000050:	AF B0 00 1C 		sw      s0,28(sp)
0x00000054:	03 A0 F0 21 		addu    fp,sp,zero
0x00000058:	AF C4 00 28 		sw      a0,40(fp)
0x0000005C:	8F C2 00 28 		lw      v0,40(fp)
0x00000060:	00 20 08 25 		or      at,at,zero
0x00000064:	14 40 00 04 		bne     v0,zero,16
0x00000078:	8F C3 00 28 		lw      v1,40(fp)
0x0000007C:	24 02 00 01 		addiu   v0,zero,1
0x00000080:	14 62 00 04 		bne     v1,v0,16
0x00000094:	8F C2 00 28 		lw      v0,40(fp)
0x00000098:	00 20 08 25 		or      at,at,zero
0x0000009C:	24 42 FF FF 		addiu   v0,v0,-1
0x000000A0:	00 40 20 21 		addu    a0,v0,zero
0x000000A4:	0C 00 00 11 		jal     0x00000044
0x00000044:	27 BD FF D8 		addiu   sp,sp,-40
0x00000048:	AF BF 00 24 		sw      ra,36(sp)
0x0000004C:	AF BE 00 20 		sw      fp,32(sp)
0x00000050:	AF B0 00 1C 		sw      s0,28(sp)
0x00000054:	03 A0 F0 21 		addu    fp,sp,zero
0x00000058:	AF C4 00 28 		sw      a0,40(fp)
0x0000005C:	8F C2 00 28 		lw      v0,40(fp)
0x00000060:	00 20 08 25 		or      at,at,zero
0x00000064:	14 40 00 04 		bne     v0,zero,16
0x00000078:	8F C3 00 28 		lw      v1,40(fp)
0x0000007C:	24 02 00 01 		addiu   v0,zero,1
0x00000080:	14 62 00 04 		bne     v1,v0,16
0x00000084:	00 20 08 25 		or      at,at,zero
0x00000088:	24 02 00 01 		addiu   v0,zero,1
0x0000008C:	08 00 00 33 		j       0x000000CC
0x000000CC:	03 C0 E8 21 		addu    sp,fp,zero
0x000000D0:	8F BF 00 24 		lw      ra,36(sp)
0x000000D4:	8F BE 00 20 		lw      fp,32(sp)
0x000000D8:	8F B0 00 1C 		lw      s0,28(sp)
0x000000DC:	27 BD 00 28 		addiu   sp,sp,40
0x000000E0:	03 E0 00 08 		jr      ra
0x000000A8:	00 20 08 25 		or      at,at,zero
0x000000AC:	00 40 80 21 		addu    s0,v0,zero
0x000000B0:	8F C2 00 28 		lw      v0,40(fp)
0x000000B4:	00 20 08 25 		or      at,at,zero
0x000000B8:	24 42 FF FE 		addiu   v0,v0,-2
0x000000BC:	00 40 20 21 		addu    a0,v0,zero
0x000000C0:	0C 00 00 11 		jal     0x00000044
0x00000044:	27 BD FF D8 		addiu   sp,sp,-40
0x00000048:	AF BF 00 24 		sw      ra,36(sp)
0x0000004C:	AF BE 00 20 		sw      fp,32(sp)
0x00000050:	AF B0 00 1C 		sw      s0,28(sp)
0x00000054:	03 A0 F0 21 		addu    fp,sp,zero
0x00000058:	AF C4 00 28 		sw      a0,40(fp)
0x0000005C:	8F C2 00 28 		lw      v0,40(fp)
0x00000060:	00 20 08 25 		or      at,at,zero
0x00000064:	14 40 00 04 		bne     v0,zero,16
0x00000068:	00 20 08 25 		or      at,at,zero
0x0000006C:	00 00 10 21 		addu    v0,zero,zero
0x00000070:	08 00 00 33 		j       0x000000CC
0x000000CC:	03 C0 E8 21 		addu    sp,fp,zero
0x000000D0:	8F BF 00 24 		lw      ra,36(sp)
0x000000D4:	8F BE 00 20 		lw      fp,32(sp)
0x000000D8:	8F B0 00 1C 		lw      s0,28(sp)
0x000000DC:	27 BD 00 28 		addiu   sp,sp,40
0x000000E0:	03 E0 00 08 		jr      ra
0x000000C4:	00 20 08 25 		or      at,at,zero
0x000000C8:	02 02 10 21 		addu    v0,s0,v0
0x000000CC:	03 C0 E8 21 		addu    sp,fp,zero
0x000000D0:	8F BF 00 24 		lw      ra,36(sp)
0x000000D4:	8F BE 00 20 		lw      fp,32(sp)
0x000000D8:	8F B0 00 1C 		lw      s0,28(sp)
0x000000DC:	27 BD 00 28 		addiu   sp,sp,40
0x000000E0:	03 E0 00 08 		jr      ra
0x000000A8:	00 20 08 25 		or      at,at,zero
0x000000AC:	00 40 80 21 		addu    s0,v0,zero
0x000000B0:	8F C2 00 28 		lw      v0,40(fp)
0x000000B4:	00 20 08 25 		or      at,at,zero
0x000000B8:	24 42 FF FE 		addiu   v0,v0,-2
0x000000BC:	00 40 20 21 		addu    a0,v0,zero
0x000000C0:	0C 00 00 11 		jal     0x00000044
0x00000044:	27 BD FF D8 		addiu   sp,sp,-40
0x00000048:	AF BF 00 24 		sw      ra,36(sp)
0x0000004C:	AF BE 00 20 		sw      fp,32(sp)
0x00000050:	AF B0 00 1C 		sw      s0,28(sp)
0x00000054:	03 A0 F0 21 		addu    fp,sp,zero
0x00000058:	AF C4 00 28 		sw      a0,40(fp)
0x0000005C:	8F C2 00 28 		lw      v0,40(fp)
0x00000060:	00 20 08 25 		or      at,at,zero
0x00000064:	14 40 00 04 		bne     v0,zero,16
0x00000078:	8F C3 00 28 		lw      v1,40(fp)
0x0000007C:	24 02 00 01 		addiu   v0,zero,1
0x00000080:	14 62 00 04 		bne     v1,v0,16
0x00000084:	00 20 08 25 		or      at,at,zero
0x00000088:	24 02 00 01 		addiu   v0,zero,1
0x0000008C:	08 00 00 33 		j       0x000000CC
0x000000CC:	03 C0 E8 21 		addu    sp,fp,zero
0x000000D0:	8F BF 00 24 		lw      ra,36(sp)
0x000000D4:	8F BE 00 20 		lw      fp,32(sp)
0x000000D8:	8F B0 00 1C 		lw      s0,28(sp)
0x000000DC:	27 BD 00 28 		addiu   sp,sp,40
0x000000E0:	03 E0 00 08 		jr      ra
0x000000C4:	00 20 08 25 		or      at,at,zero
0x000000C8:	02 02 10 21 		addu    v0,s0,v0
0x000000CC:	03 C0 E8 21 		addu    sp,fp,zero
0x000000D0:	8F BF 00 24 		lw      ra,36(sp)
0x000000D4:	8F BE 00 20 		lw      fp,32(sp)
0x000000D8:	8F B0 00 1C 		lw      s0,28(sp)
0x000000DC:	27 BD 00 28 		addiu   sp,sp,40
0x000000E0:	03 E0 00 08 		jr      ra
0x000000A8:	00 20 08 25 		or      at,at,zero
0x000000AC:	00 40 80 21 		addu    s0,v0,zero
0x000000B0:	8F C2 00 28 		lw      v0,40(fp)
0x000000B4:	00 20 08 25 		or      at,at,zero
0x000000B8:	24 42 FF FE 		addiu   v0,v0,-2
0x000000BC:	00 40 20 21 		addu    a0,v0,zero
0x000000C0:	0C 00 00 11 		jal     0x00000044
0x00000044:	27 BD FF D8 		addiu   sp,sp,-40
0x00000048:	AF BF 00 24 		sw      ra,36(sp)
0x0000004C:	AF BE 00 20 		sw      fp,32(sp)
0x00000050:	AF B0 00 1C 		sw      s0,28(sp)
0x00000054:	03 A0 F0 21 		addu    fp,sp,zero
0x00000058:	AF C4 00 28 		sw      a0,40(fp)
0x0000005C:	8F C2 00 28 		lw      v0,40(fp)
0x00000060:	00 20 08 25 		or      at,at,zero
0x00000064:	14 40 00 04 		bne     v0,zero,16
0x00000078:	8F C3 00 28 		lw      v1,40(fp)
0x0000007C:	24 02 00 01 		addiu   v0,zero,1
0x00000080:	14 62 00 04 		bne     v1,v0,16
0x00000094:	8F C2 00 28 		lw      v0,40(fp)
0x00000098:	00 20 08 25 		or      at,at,zero
0x0000009C:	24 42 FF FF 		addiu   v0,v0,-1
0x000000A0:	00 40 20 21 		addu    a0,v0,zero
0x000000A4:	0C 00 00 11 		jal     0x00000044
0x00000044:	27 BD FF D8 		addiu   sp,sp,-40
0x00000048:	AF BF 00 24 		sw      ra,36(sp)
0x0000004C:	AF BE 00 20 		sw      fp,32(sp)
0x00000050:	AF B0 00 1C 		sw      s0,28(sp)
0x00000054:	03 A0 F0 21 		addu    fp,sp,zero
0x00000058:	AF C4 00 28 		sw      a0,40(fp)
0x0000005C:	8F C2 00 28 		lw      v0,40(fp)
0x00000060:	00 20 08 25 		or      at,at,zero
0x00000064:	14 40 00 04 		bne     v0,zero,16
0x00000078:	8F C3 00 28 		lw      v1,40(fp)
0x0000007C:	24 02 00 01 		addiu   v0,zero,1
0x00000080:	14 62 00 04 		bne     v1,v0,16
0x00000084:	00 20 08 25 		or      at,at,zero
0x00000088:	24 02 00 01 		addiu   v0,zero,1
0x0000008C:	08 00 00 33 		j       0x000000CC
0x000000CC:	03 C0 E8 21 		addu    sp,fp,zero
0x000000D0:	8F BF 00 24 		lw      ra,36(sp)
0x000000D4:	8F BE 00 20 		lw      fp,32(sp)
0x000000D8:	8F B0 00 1C 		lw      s0,28(sp)
0x000000DC:	27 BD 00 28 		addiu   sp,sp,40
0x000000E0:	03 E0 00 08 		jr      ra
0x000000A8:	00 20 08 25 		or      at,at,zero
0x000000AC:	00 40 80 21 		addu    s0,v0,zero
0x000000B0:	8F C2 00 28 		lw      v0,40(fp)
0x000000B4:	00 20 08 25 		or      at,at,zero
0x000000B8:	24 42 FF FE 		addiu   v0,v0,-2
0x000000BC:	00 40 20 21 		addu    a0,v0,zero
0x000000C0:	0C 00 00 11 		jal     0x00000044
0x00000044:	27 BD FF D8 		addiu   sp,sp,-40
0x00000048:	AF BF 00 24 		sw      ra,36(sp)
0x0000004C:	AF BE 00 20 		sw      fp,32(sp)
0x00000050:	AF B0 00 1C 		sw      s0,28(sp)
0x00000054:	03 A0 F0 21 		addu    fp,sp,zero
0x00000058:	AF C4 00 28 		sw      a0,40(fp)
0x0000005C:	8F C2 00 28 		lw      v0,40(fp)
0x00000060:	00 20 08 25 		or      at,at,zero
0x00000064:	14 40 00 04 		bne     v0,zero,16
0x00000068:	00 20 08 25 		or      at,at,zero
0x0000006C:	00 00 10 21 		addu    v0,zero,zero
0x00000070:	08 00 00 33 		j       0x000000CC
0x000000CC:	03 C0 E8 21 		addu    sp,fp,zero
0x000000D0:	8F BF 00 24 		lw      ra,36(sp)
0x000000D4:	8F BE 00 20 		lw      fp,32(sp)
0x000000D8:	8F B0 00 1C 		lw      s0,28(sp)
0x000000DC:	27 BD 00 28 		addiu   sp,sp,40
0x000000E0:	03 E0 00 08 		jr      ra
0x000000C4:	00 20 08 25 		or      at,at,zero
0x000000C8:	02 02 10 21 		addu    v0,s0,v0
0x000000CC:	03 C0 E8 21 		addu    sp,fp,zero
0x000000D0:	8F BF 00 24 		lw      ra,36(sp)
0x000000D4:	8F BE 00 20 		lw      fp,32(sp)
0x000000D8:	8F B0 00 1C 		lw      s0,28(sp)
0x000000DC:	27 BD 00 28 		addiu   sp,sp,40
0x000000E0:	03 E0 00 08 		jr      ra
0x000000C4:	00 20 08 25 		or      at,at,zero
0x000000C8:	02 02 10 21 		addu    v0,s0,v0
0x000000CC:	03 C0 E8 21 		addu    sp,fp,zero
0x000000D0:	8F BF 00 24 		lw      ra,36(sp)
0x000000D4:	8F BE 00 20 		lw      fp,32(sp)
0x000000D8:	8F B0 00 1C 		lw      s0,28(sp)
0x000000DC:	27 BD 00 28 		addiu   sp,sp,40
0x000000E0:	03 E0 00 08 		jr      ra
0x000000C4:	00 20 08 25 		or      at,at,zero
0x000000C8:	02 02 10 21 		addu    v0,s0,v0
0x000000CC:	03 C0 E8 21 		addu    sp,fp,zero
0x000000D0:	8F BF 00 24 		lw      ra,36(sp)
0x000000D4:	8F BE 00 20 		lw      fp,32(sp)
0x000000D8:	8F B0 00 1C 		lw      s0,28(sp)
0x000000DC:	27 BD 00 28 		addiu   sp,sp,40
0x000000E0:	03 E0 00 08 		jr      ra
0x000000A8:	00 20 08 25 		or      at,at,zero
0x000000AC:	00 40 80 21 		addu    s0,v0,zero
0x000000B0:	8F C2 00 28 		lw      v0,40(fp)
0x000000B4:	00 20 08 25 		or      at,at,zero
0x000000B8:	24 42 FF FE 		addiu   v0,v0,-2
0x000000BC:	00 40 20 21 		addu    a0,v0,zero
0x000000C0:	0C 00 00 11 		jal     0x00000044
0x00000044:	27 BD FF D8 		addiu   sp,sp,-40
0x00000048:	AF BF 00 24 		sw      ra,36(sp)
0x0000004C:	AF BE 00 20 		sw      fp,32(sp)
0x00000050:	AF B0 00 1C 		sw      s0,28(sp)
0x00000054:	03 A0 F0 21 		addu    fp,sp,zero
0x00000058:	AF C4 00 28 		sw      a0,40(fp)
0x0000005C:	8F C2 00 28 		lw      v0,40(fp)
0x00000060:	00 20 08 25 		or      at,at,zero
0x00000064:	14 40 00 04 		bne     v0,zero,16
0x00000078:	8F C3 00 28 		lw      v1,40(fp)
0x0000007C:	24 02 00 01 		addiu   v0,zero,1
0x00000080:	14 62 00 04 		bne     v1,v0,16
0x00000094:	8F C2 00 28 		lw      v0,40(fp)
0x00000098:	00 20 08 25 		or      at,at,zero
0x0000009C:	24 42 FF FF 		addiu   v0,v0,-1
0x000000A0:	00 40 20 21 		addu    a0,v0,zero
0x000000A4:	0C 00 00 11 		jal     0x00000044
0x00000044:	27 BD FF D8 		addiu   sp,sp,-40
0x00000048:	AF BF 00 24 		sw      ra,36(sp)
0x0000004C:	AF BE 00 20 		sw      fp,32(sp)
0x00000050:	AF B0 00 1C 		sw      s0,28(sp)
0x00000054:	03 A0 F0 21 		addu    fp,sp,zero
0x00000058:	AF C4 00 28 		sw      a0,40(fp)
0x0000005C:	8F C2 00 28 		lw      v0,40(fp)
0x00000060:	00 20 08 25 		or      at,at,zero
0x00000064:	14 40 00 04 		bne     v0,zero,16
0x00000078:	8F C3 00 28 		lw      v1,40(fp)
0x0000007C:	24 02 00 01 		addiu   v0,zero,1
0x00000080:	14 62 00 04 		bne     v1,v0,16
0x00000094:	8F C2 00 28 		lw      v0,40(fp)
0x00000098:	00 20 08 25 		or      at,at,zero
0x0000009C:	24 42 FF FF 		addiu   v0,v0,-1
0x000000A0:	00 40 20 21 		addu    a0,v0,zero
0x000000A4:	0C 00 00 11 		jal     0x00000044
0x00000044:	27 BD FF D8 		addiu   sp,sp,-40
0x00000048:	AF BF 00 24 		sw      ra,36(sp)
0x0000004C:	AF BE 00 20 		sw      fp,32(sp)
0x00000050:	AF B0 00 1C 		sw      s0,28(sp)
0x00000054:	03 A0 F0 21 		addu    fp,sp,zero
0x00000058:	AF C4 00 28 		sw      a0,40(fp)
0x0000005C:	8F C2 00 28 		lw      v0,40(fp)
0x00000060:	00 20 08 25 		or      at,at,zero
0x00000064:	14 40 00 04 		bne     v0,zero,16
0x00000078:	8F C3 00 28 		lw      v1,40(fp)
0x0000007C:	24 02 00 01 		addiu   v0,zero,1
0x00000080:	14 62 00 04 		bne     v1,v0,16
0x00000094:	8F C2 00 28 		lw      v0,40(fp)
0x00000098:	00 20 08 25 		or      at,at,zero
0x0000009C:	24 42 FF FF 		addiu   v0,v0,-1
0x000000A0:	00 40 20 21 		addu    a0,v0,zero
0x000000A4:	0C 00 00 11 		jal     0x00000044
0x00000044:	27 BD FF D8 		addiu   sp,sp,-40
0x00000048:	AF BF 00 24 		sw      ra,36(sp)
0x0000004C:	AF BE 00 20 		sw      fp,32(sp)
0x00000050:	AF B0 00 1C 		sw      s0,28(sp)
0x00000054:	03 A0 F0 21 		addu    fp,sp,zero
0x00000058:	AF C4 00 28 		sw      a0,40(fp)
0x0000005C:	8F C2 00 28 		lw      v0,40(fp)
0x00000060:	00 20 08 25 		or      at,at,zero
0x00000064:	14 40 00 04 		bne     v0,zero,16
0x00000078:	8F C3 00 28 		lw      v1,40(fp)
0x0000007C:	24 02 00 01 		addiu   v0,zero,1
0x00000080:	14 62 00 04 		bne     v1,v0,16
0x00000094:	8F C2 00 28 		lw      v0,40(fp)
0x00000098:	00 20 08 25 		or      at,at,zero
0x0000009C:	24 42 FF FF 		addiu   v0,v0,-1
0x000000A0:	00 40 20 21 		addu    a0,v0,zero
0x000000A4:	0C 00 00 11 		jal     0x00000044
0x00000044:	27 BD FF D8 		addiu   sp,sp,-40
0x00000048:	AF BF 00 24 		sw      ra,36(sp)
0x0000004C:	AF BE 00 20 		sw      fp,32(sp)
0x00000050:	AF B0 00 1C 		sw      s0,28(sp)
0x00000054:	03 A0 F0 21 		addu    fp,sp,zero
0x00000058:	AF C4 00 28 		sw      a0,40(fp)
0x0000005C:	8F C2 00 28 		lw      v0,40(fp)
0x00000060:	00 20 08 25 		or      at,at,zero
0x00000064:	14 40 00 04 		bne     v0,zero,16
0x00000078:	8F C3 00 28 		lw      v1,40(fp)
0x0000007C:	24 02 00 01 		addiu   v0,zero,1
0x00000080:	14 62 00 04 		bne     v1,v0,16
0x00000084:	00 20 08 25 		or      at,at,zero
0x00000088:	24 02 00 01 		addiu   v0,zero,1
0x0000008C:	08 00 00 33 		j       0x000000CC
0x000000CC:	03 C0 E8 21 		addu    sp,fp,zero
0x000000D0:	8F BF 00 24 		lw      ra,36(sp)
0x000000D4:	8F BE 00 20 		lw      fp,32(sp)
0x000000D8:	8F B0 00 1C 		lw      s0,28(sp)
0x000000DC:	27 BD 00 28 		addiu   sp,sp,40
0x000000E0:	03 E0 00 08 		jr      ra
0x000000A8:	00 20 08 25 		or      at,at,zero
0x000000AC:	00 40 80 21 		addu    s0,v0,zero
0x000000B0:	8F C2 00 28 		lw      v0,40(fp)
0x000000B4:	00 20 08 25 		or      at,at,zero
0x000000B8:	24 42 FF FE 		addiu   v0,v0,-2
0x000000BC:	00 40 20 21 		addu    a0,v0,zero
0x000000C0:	0C 00 00 11 		jal     0x00000044
0x00000044:	27 BD FF D8 		addiu   sp,sp,-40
0x00000048:	AF BF 00 24 		sw      ra,36(sp)
0x0000004C:	AF BE 00 20 		sw      fp,32(sp)
0x00000050:	AF B0 00 1C 		sw      s0,28(sp)
0x00000054:	03 A0 F0 21 		addu    fp,sp,zero
0x00000058:	AF C4 00 28 		sw      a0,40(fp)
0x0000005C:	8F C2 00 28 		lw      v0,40(fp)
0x00000060:	00 20 08 25 		or      at,at,zero
0x00000064:	14 40 00 04 		bne     v0,zero,16
0x00000068:	00 20 08 25 		or      at,at,zero
0x0000006C:	00 00 10 21 		addu    v0,zero,zero
0x00000070:	08 00 00 33 		j       0x000000CC
0x000000CC:	03 C0 E8 21 		addu    sp,fp,zero
0x000000D0:	8F BF 00 24 		lw      ra,36(sp)
0x000000D4:	8F BE 00 20 		lw      fp,32(sp)
0x000000D8:	8F B0 00 1C 		lw      s0,28(sp)
0x000000DC:	27 BD 00 28 		addiu   sp,sp,40
0x000000E0:	03 E0 00 08 		jr      ra
0x000000C4:	00 20 08 25 		or      at,at,zero
0x000000C8:	02 02 10 21 		addu    v0,s0,v0
0x000000CC:	03 C0 E8 21 		addu    sp,fp,zero
0x000000D0:	8F BF 00 24 		lw      ra,36(sp)
0x000000D4:	8F BE 00 20 		lw      fp,32(sp)
0x000000D8:	8F B0 00 1C 		lw      s0,28(sp)
0x000000DC:	27 BD 00 28 		addiu   sp,sp,40
0x000000E0:	03 E0 00 08 		jr      ra
0x000000A8:	00 20 08 25 		or      at,at,zero
0x000000AC:	00 40 80 21 		addu    s0,v0,zero
0x000000B0:	8F C2 00 28 		lw      v0,40(fp)
0x000000B4:	00 20 08 25 		or      at,at,zero
0x000000B8:	24 42 FF FE 		addiu   v0,v0,-2
0x000000BC:	00 40 20 21 		addu    a0,v0,zero
0x000000C0:	0C 00 00 11 		jal     0x00000044
0x00000044:	27 BD FF D8 		addiu   sp,sp,-40
0x00000048:	AF BF 00 24 		sw      ra,36(sp)
0x0000004C:	AF BE 00 20 		sw      fp,32(sp)
0x00000050:	AF B0 00 1C 		sw      s0,28(sp)
0x00000054:	03 A0 F0 21 		addu    fp,sp,zero
0x00000058:	AF C4 00 28 		sw      a0,40(fp)
0x0000005C:	8F C2 00 28 		lw      v0,40(fp)
0x00000060:	00 20 08 25 		or      at,at,zero
0x00000064:	14 40 00 04 		bne     v0,zero,16
0x00000078:	8F C3 00 28 		lw      v1,40(fp)
0x0000007C:	24 02 00 01 		addiu   v0,zero,1
0x00000080:	14 62 00 04 		bne     v1,v0,16
0x00000084:	00 20 08 25 		or      at,at,zero
0x00000088:	24 02 00 01 		addiu   v0,zero,1
0x0000008C:	08 00 00 33 		j       0x000000CC
0x000000CC:	03 C0 E8 21 		addu    sp,fp,zero
0x000000D0:	8F BF 00 24 		lw      ra,36(sp)
0x000000D4:	8F BE 00 20 		lw      fp,32(sp)
0x000000D8:	8F B0 00 1C 		lw      s0,28(sp)
0x000000DC:	27 BD 00 28 		addiu   sp,sp,40
0x000000E0:	03 E0 00 08 		jr      ra
0x000000C4:	00 20 08 25 		or      at,at,zero
0x000000C8:	02 02 10 21 		addu    v0,s0,v0
0x000000CC:	03 C0 E8 21 		addu    sp,fp,zero
0x000000D0:	8F BF 00 24 		lw      ra,36(sp)
0x000000D4:	8F BE 00 20 		lw      fp,32(sp)
0x000000D8:	8F B0 00 1C 		lw      s0,28(sp)
0x000000DC:	27 BD 00 28 		addiu   sp,sp,40
0x000000E0:	03 E0 00 08 		jr      ra
0x000000A8:	00 20 08 25 		or      at,at,zero
0x000000AC:	00 40 80 21 		addu    s0,v0,zero
0x000000B0:	8F C2 00 28 		lw      v0,40(fp)
0x000000B4:	00 20 08 25 		or      at,at,zero
0x000000B8:	24 42 FF FE 		addiu   v0,v0,-2
0x000000BC:	00 40 20 21 		addu    a0,v0,zero
0x000000C0:	0C 00 00 11 		jal     0x00000044
0x00000044:	27 BD FF D8 		addiu   sp,sp,-40
0x00000048:	AF BF 00 24 		sw      ra,36(sp)
0x0000004C:	AF BE 00 20 		sw      fp,32(sp)
0x00000050:	AF B0 00 1C 		sw      s0,28(sp)
0x00000054:	03 A0 F0 21 		addu    fp,sp,zero
0x00000058:	AF C4 00 28 		sw      a0,40(fp)
0x0000005C:	8F C2 00 28 		lw      v0,40(fp)
0x00000060:	00 20 08 25 		or      at,at,zero
0x00000064:	14 40 00 04 		bne     v0,zero,16
0x00000078:	8F C3 00 28 		lw      v1,40(fp)
0x0000007C:	24 02 00 01 		addiu   v0,zero,1
0x00000080:	14 62 00 04 		bne     v1,v0,16
0x00000094:	8F C2 00 28 		lw      v0,40(fp)
0x00000098:	00 20 08 25 		or      at,at,zero
0x0000009C:	24 42 FF FF 		addiu   v0,v0,-1
0x000000A0:	00 40 20 21 		addu    a0,v0,zero
0x000000A4:	0C 00 00 11 		jal     0x00000044
0x00000044:	27 BD FF D8 		addiu   sp,sp,-40
0x00000048:	AF BF 00 24 		sw      ra,36(sp)
0x0000004C:	AF BE 00 20 		sw      fp,32(sp)
0x00000050:	AF B0 00 1C 		sw      s0,28(sp)
0x00000054:	03 A0 F0 21 		addu    fp,sp,zero
0x00000058:	AF C4 00 28 		sw      a0,40(fp)
0x0000005C:	8F C2 00 28 		lw      v0,40(fp)
0x00000060:	00 20 08 25 		or      at,at,zero
0x00000064:	14 40 00 04 		bne     v0,zero,16
0x00000078:	8F C3 00 28 		lw      v1,40(fp)
0x0000007C:	24 02 00 01 		addiu   v0,zero,1
0x00000080:	14 62 00 04 		bne     v1,v0,16
0x00000084:	00 20 08 25 		or      at,at,zero
0x00000088:	24 02 00 01 		addiu   v0,zero,1
0x0000008C:	08 00 00 33 		j       0x000000CC
0x000000CC:	03 C0 E8 21 		addu    sp,fp,zero
0x000000D0:	8F BF 00 24 		lw      ra,36(sp)
0x000000D4:	8F BE 00 20 		lw      fp,32(sp)
0x000000D8:	8F B0 00 1C 		lw      s0,28(sp)
0x000000DC:	27 BD 00 28 		addiu   sp,sp,40
0x000000E0:	03 E0 00 08 		jr      ra
0x000000A8:	00 20 08 25 		or      at,at,zero
0x000000AC:	00 40 80 21 		addu    s0,v0,zero
0x000000B0:	8F C2 00 28 		lw      v0,40(fp)
0x000000B4:	00 20 08 25 		or      at,at,zero
0x000000B8:	24 42 FF FE 		addiu   v0,v0,-2
0x000000BC:	00 40 20 21 		addu    a0,v0,zero
0x000000C0:	0C 00 00 11 		jal     0x00000044
0x00000044:	27 BD FF D8 		addiu   sp,sp,-40
0x00000048:	AF BF 00 24 		sw      ra,36(sp)
0x0000004C:	AF BE 00 20 		sw      fp,32(sp)
0x00000050:	AF B0 00 1C 		sw      s0,28(sp)
0x00000054:	03 A0 F0 21 		addu    fp,sp,zero
0x00000058:	AF C4 00 28 		sw      a0,40(fp)
0x0000005C:	8F C2 00 28 		lw      v0,40(fp)
0x00000060:	00 20 08 25 		or      at,at,zero
0x00000064:	14 40 00 04 		bne     v0,zero,16
0x00000068:	00 20 08 25 		or      at,at,zero
0x0000006C:	00 00 10 21 		addu    v0,zero,zero
0x00000070:	08 00 00 33 		j       0x000000CC
0x000000CC:	03 C0 E8 21 		addu    sp,fp,zero
0x000000D0:	8F BF 00 24 		lw      ra,36(sp)
0x000000D4:	8F BE 00 20 		lw      fp,32(sp)
0x000000D8:	8F B0 00 1C 		lw      s0,28(sp)
0x000000DC:	27 BD 00 28 		addiu   sp,sp,40
0x000000E0:	03 E0 00 08 		jr      ra
0x000000C4:	00 20 08 25 		or      at,at,zero
0x000000C8:	02 02 10 21 		addu    v0,s0,v0
0x000000CC:	03 C0 E8 21 		addu    sp,fp,zero
0x000000D0:	8F BF 00 24 		lw      ra,36(sp)
0x000000D4:	8F BE 00 20 		lw      fp,32(sp)
0x000000D8:	8F B0 00 1C 		lw      s0,28(sp)
0x000000DC:	27 BD 00 28 		addiu   sp,sp,40
0x000000E0:	03 E0 00 08 		jr      ra
0x000000C4:	00 20 08 25 		or      at,at,zero
0x000000C8:	02 02 10 21 		addu    v0,s0,v0
0x000000CC:	03 C0 E8 21 		addu    sp,fp,zero
0x000000D0:	8F BF 00 24 		lw      ra,36(sp)
0x000000D4:	8F BE 00 20 		lw      fp,32(sp)
0x000000D8:	8F B0 00 1C 		lw      s0,28(sp)
0x000000DC:	27 BD 00 28 		addiu   sp,sp,40
0x000000E0:	03 E0 00 08 		jr      ra
0x000000A8:	00 20 08 25 		or      at,at,zero
0x000000AC:	00 40 80 21 		addu    s0,v0,zero
0x000000B0:	8F C2 00 28 		lw      v0,40(fp)
0x000000B4:	00 20 08 25 		or      at,at,zero
0x000000B8:	24 42 FF FE 		addiu   v0,v0,-2
0x000000BC:	00 40 20 21 		addu    a0,v0,zero
0x000000C0:	0C 00 00 11 		jal     0x00000044
0x00000044:	27 BD FF D8 		addiu   sp,sp,-40
0x00000048:	AF BF 00 24 		sw      ra,36(sp)
0x0000004C:	AF BE 00 20 		sw      fp,32(sp)
0x00000050:	AF B0 00 1C 		sw      s0,28(sp)
0x00000054:	03 A0 F0 21 		addu    fp,sp,zero
0x00000058:	AF C4 00 28 		sw      a0,40(fp)
0x0000005C:	8F C2 00 28 		lw      v0,40(fp)
0x00000060:	00 20 08 25 		or      at,at,zero
0x00000064:	14 40 00 04 		bne     v0,zero,16
0x00000078:	8F C3 00 28 		lw      v1,40(fp)
0x0000007C:	24 02 00 01 		addiu   v0,zero,1
0x00000080:	14 62 00 04 		bne     v1,v0,16
0x00000094:	8F C2 00 28 		lw      v0,40(fp)
0x00000098:	00 20 08 25 		or      at,at,zero
0x0000009C:	24 42 FF FF 		addiu   v0,v0,-1
0x000000A0:	00 40 20 21 		addu    a0,v0,zero
0x000000A4:	0C 00 00 11 		jal     0x00000044
0x00000044:	27 BD FF D8 		addiu   sp,sp,-40
0x00000048:	AF BF 00 24 		sw      ra,36(sp)
0x0000004C:	AF BE 00 20 		sw      fp,32(sp)
0x00000050:	AF B0 00 1C 		sw      s0,28(sp)
0x00000054:	03 A0 F0 21 		addu    fp,sp,zero
0x00000058:	AF C4 00 28 		sw      a0,40(fp)
0x0000005C:	8F C2 00 28 		lw      v0,40(fp)
0x00000060:	00 20 08 25 		or      at,at,zero
0x00000064:	14 40 00 04 		bne     v0,zero,16
0x00000078:	8F C3 00 28 		lw      v1,40(fp)
0x0000007C:	24 02 00 01 		addiu   v0,zero,1
0x00000080:	14 62 00 04 		bne     v1,v0,16
0x00000094:	8F C2 00 28 		lw      v0,40(fp)
0x00000098:	00 20 08 25 		or      at,at,zero
0x0000009C:	24 42 FF FF 		addiu   v0,v0,-1
0x000000A0:	00 40 20 21 		addu    a0,v0,zero
0x000000A4:	0C 00 00 11 		jal     0x00000044
0x00000044:	27 BD FF D8 		addiu   sp,sp,-40
0x00000048:	AF BF 00 24 		sw      ra,36(sp)
0x0000004C:	AF BE 00 20 		sw      fp,32(sp)
0x00000050:	AF B0 00 1C 		sw      s0,28(sp)
0x00000054:	03 A0 F0 21 		addu    fp,sp,zero
0x00000058:	AF C4 00 28 		sw      a0,40(fp)
0x0000005C:	8F C2 00 28 		lw      v0,40(fp)
0x00000060:	00 20 08 25 		or      at,at,zero
0x00000064:	14 40 00 04 		bne     v0,zero,16
0x00000078:	8F C3 00 28 		lw      v1,40(fp)
0x0000007C:	24 02 00 01 		addiu   v0,zero,1
0x00000080:	14 62 00 04 		bne     v1,v0,16
0x00000084:	00 20 08 25 		or      at,at,zero
0x00000088:	24 02 00 01 		addiu   v0,zero,1
0x0000008C:	08 00 00 33 		j       0x000000CC
0x000000CC:	03 C0 E8 21 		addu    sp,fp,zero
0x000000D0:	8F BF 00 24 		lw      ra,36(sp)
0x000000D4:	8F BE 00 20 		lw      fp,32(sp)
0x000000D8:	8F B0 00 1C 		lw      s0,28(sp)
0x000000DC:	27 BD 00 28 		addiu   sp,sp,40
0x000000E0:	03 E0 00 08 		jr      ra
0x000000A8:	00 20 08 25 		or      at,at,zero
0x000000AC:	00 40 80 21 		addu    s0,v0,zero
0x000000B0:	8F C2 00 28 		lw      v0,40(fp)
0x000000B4:	00 20 08 25 		or      at,at,zero
0x000000B8:	24 42 FF FE 		addiu   v0,v0,-2
0x000000BC:	00 40 20 21 		addu    a0,v0,zero
0x000000C0:	0C 00 00 11 		jal     0x00000044
0x00000044:	27 BD FF D8 		addiu   sp,sp,-40
0x00000048:	AF BF 00 24 		sw      ra,36(sp)
0x0000004C:	AF BE 00 20 		sw      fp,32(sp)
0x00000050:	AF B0 00 1C 		sw      s0,28(sp)
0x00000054:	03 A0 F0 21 		addu    fp,sp,zero
0x00000058:	AF C4 00 28 		sw      a0,40(fp)
0x0000005C:	8F C2 00 28 		lw      v0,40(fp)
0x00000060:	00 20 08 25 		or      at,at,zero
0x00000064:	14 40 00 04 		bne     v0,zero,16
0x00000068:	00 20 08 25 		or      at,at,zero
0x0000006C:	00 00 10 21 		addu    v0,zero,zero
0x00000070:	08 00 00 33 		j       0x000000CC
0x000000CC:	03 C0 E8 21 		addu    sp,fp,zero
0x000000D0:	8F BF 00 24 		lw      ra,36(sp)
0x000000D4:	8F BE 00 20 		lw      fp,32(sp)
0x000000D8:	8F B0 00 1C 		lw      s0,28(sp)
0x000000DC:	27 BD 00 28 		addiu   sp,sp,40
0x000000E0:	03 E0 00 08 		jr      ra
0x000000C4:	00 20 08 25 		or      at,at,zero
0x000000C8:	02 02 10 21 		addu    v0,s0,v0
0x000000CC:	03 C0 E8 21 		addu    sp,fp,zero
0x000000D0:	8F BF 00 24 		lw      ra,36(sp)
0x000000D4:	8F BE 00 20 		lw      fp,32(sp)
0x000000D8:	8F B0 00 1C 		lw      s0,28(sp)
0x000000DC:	27 BD 00 28 		addiu   sp,sp,40
0x000000E0:	03 E0 00 08 		jr      ra
0x000000A8:	00 20 08 25 		or      at,at,zero
0x000000AC:	00 40 80 21 		addu    s0,v0,zero
0x000000B0:	8F C2 00 28 		lw      v0,40(fp)
0x000000B4:	00 20 08 25 		or      at,at,zero
0x000000B8:	24 42 FF FE 		addiu   v0,v0,-2
0x000000BC:	00 40 20 21 		addu    a0,v0,zero
0x000000C0:	0C 00 00 11 		jal     0x00000044
0x00000044:	27 BD FF D8 		addiu   sp,sp,-40
0x00000048:	AF BF 00 24 		sw      ra,36(sp)
0x0000004C:	AF BE 00 20 		sw      fp,32(sp)
0x00000050:	AF B0 00 1C 		sw      s0,28(sp)
0x00000054:	03 A0 F0 21 		addu    fp,sp,zero
0x00000058:	AF C4 00 28 		sw      a0,40(fp)
0x0000005C:	8F C2 00 28 		lw      v0,40(fp)
0x00000060:	00 20 08 25 		or      at,at,zero
0x00000064:	14 40 00 04 		bne     v0,zero,16
0x00000078:	8F C3 00 28 		lw      v1,40(fp)
0x0000007C:	24 02 00 01 		addiu   v0,zero,1
0x00000080:	14 62 00 04 		bne     v1,v0,16
0x00000084:	00 20 08 25 		or      at,at,zero
0x00000088:	24 02 00 01 		addiu   v0,zero,1
0x0000008C:	08 00 00 33 		j       0x000000CC
0x000000CC:	03 C0 E8 21 		addu    sp,fp,zero
0x000000D0:	8F BF 00 24 		lw      ra,36(sp)
0x000000D4:	8F BE 00 20 		lw      fp,32(sp)
0x000000D8:	8F B0 00 1C 		lw      s0,28(sp)
0x000000DC:	27 BD 00 28 		addiu   sp,sp,40
0x000000E0:	03 E0 00 08 		jr      ra
0x000000C4:	00 20 08 25 		or      at,at,zero
0x000000C8:	02 02 10 21 		addu    v0,s0,v0
0x000000CC:	03 C0 E8 21 		addu    sp,fp,zero
0x000000D0:	8F BF 00 24 		lw      ra,36(sp)
0x000000D4:	8F BE 00 20 		lw      fp,32(sp)
0x000000D8:	8F B0 00 1C 		lw      s0,28(sp)
0x000000DC:	27 BD 00 28 		addiu   sp,sp,40
0x000000E0:	03 E0 00 08 		jr      ra
0x000000C4:	00 20 08 25 		or      at,at,zero
0x000000C8:	02 02 10 21 		addu    v0,s0,v0
0x000000CC:	03 C0 E8 21 		addu    sp,fp,zero
0x000000D0:	8F BF 00 24 		lw      ra,36(sp)
0x000000D4:	8F BE 00 20 		lw      fp,32(sp)
0x000000D8:	8F B0 00 1C 		lw      s0,28(sp)
0x000000DC:	27 BD 00 28 		addiu   sp,sp,40
0x000000E0:	03 E0 00 08 		jr      ra
0x000000C4:	00 20 08 25 		or      at,at,zero
0x000000C8:	02 02 10 21 		addu    v0,s0,v0
0x000000CC:	03 C0 E8 21 		addu    sp,fp,zero
0x000000D0:	8F BF 00 24 		lw      ra,36(sp)
0x000000D4:	8F BE 00 20 		lw      fp,32(sp)
0x000000D8:	8F B0 00 1C 		lw      s0,28(sp)
0x000000DC:	27 BD 00 28 		addiu   sp,sp,40
0x000000E0:	03 E0 00 08 		jr      ra
0x000000A8:	00 20 08 25 		or      at,at,zero
0x000000AC:	00 40 80 21 		addu    s0,v0,zero
0x000000B0:	8F C2 00 28 		lw      v0,40(fp)
0x000000B4:	00 20 08 25 		or      at,at,zero
0x000000B8:	24 42 FF FE 		addiu   v0,v0,-2
0x000000BC:	00 40 20 21 		addu    a0,v0,zero
0x000000C0:	0C 00 00 11 		jal     0x00000044
0x00000044:	27 BD FF D8 		addiu   sp,sp,-40
0x00000048:	AF BF 00 24 		sw      ra,36(sp)
0x0000004C:	AF BE 00 20 		sw      fp,32(sp)
0x00000050:	AF B0 00 1C 		sw      s0,28(sp)
0x00000054:	03 A0 F0 21 		addu    fp,sp,zero
0x00000058:	AF C4 00 28 		sw      a0,40(fp)
0x0000005C:	8F C2 00 28 		lw      v0,40(fp)
0x00000060:	00 20 08 25 		or      at,at,zero
0x00000064:	14 40 00 04 		bne     v0,zero,16
0x00000078:	8F C3 00 28 		lw      v1,40(fp)
0x0000007C:	24 02 00 01 		addiu   v0,zero,1
0x00000080:	14 62 00 04 		bne     v1,v0,16
0x00000094:	8F C2 00 28 		lw      v0,40(fp)
0x00000098:	00 20 08 25 		or      at,at,zero
0x0000009C:	24 42 FF FF 		addiu   v0,v0,-1
0x000000A0:	00 40 20 21 		addu    a0,v0,zero
0x000000A4:	0C 00 00 11 		jal     0x00000044
0x00000044:	27 BD FF D8 		addiu   sp,sp,-40
0x00000048:	AF BF 00 24 		sw      ra,36(sp)
0x0000004C:	AF BE 00 20 		sw      fp,32(sp)
0x00000050:	AF B0 00 1C 		sw      s0,28(sp)
0x00000054:	03 A0 F0 21 		addu    fp,sp,zero
0x00000058:	AF C4 00 28 		sw      a0,40(fp)
0x0000005C:	8F C2 00 28 		lw      v0,40(fp)
0x00000060:	00 20 08 25 		or      at,at,zero
0x00000064:	14 40 00 04 		bne     v0,zero,16
0x00000078:	8F C3 00 28 		lw      v1,40(fp)
0x0000007C:	24 02 00 01 		addiu   v0,zero,1
0x00000080:	14 62 00 04 		bne     v1,v0,16
0x00000094:	8F C2 00 28 		lw      v0,40(fp)
0x00000098:	00 20 08 25 		or      at,at,zero
0x0000009C:	24 42 FF FF 		addiu   v0,v0,-1
0x000000A0:	00 40 20 21 		addu    a0,v0,zero
0x000000A4:	0C 00 00 11 		jal     0x00000044
0x00000044:	27 BD FF D8 		addiu   sp,sp,-40
0x00000048:	AF BF 00 24 		sw      ra,36(sp)
0x0000004C:	AF BE 00 20 		sw      fp,32(sp)
0x00000050:	AF B0 00 1C 		sw      s0,28(sp)
0x00000054:	03 A0 F0 21 		addu    fp,sp,zero
0x00000058:	AF C4 00 28 		sw      a0,40(fp)
0x0000005C:	8F C2 00 28 		lw      v0,40(fp)
0x00000060:	00 20 08 25 		or      at,at,zero
0x00000064:	14 40 00 04 		bne     v0,zero,16
0x00000078:	8F C3 00 28 		lw      v1,40(fp)
0x0000007C:	24 02 00 01 		addiu   v0,zero,1
0x00000080:	14 62 00 04 		bne     v1,v0,16
0x00000094:	8F C2 00 28 		lw      v0,40(fp)
0x00000098:	00 20 08 25 		or      at,at,zero
0x0000009C:	24 42 FF FF 		addiu   v0,v0,-1
0x000000A0:	00 40 20 21 		addu    a0,v0,zero
0x000000A4:	0C 00 00 11 		jal     0x00000044
0x00000044:	27 BD FF D8 		addiu   sp,sp,-40
0x00000048:	AF BF 00 24 		sw      ra,36(sp)
0x0000004C:	AF BE 00 20 		sw      fp,32(sp)
0x00000050:	AF B0 00 1C 		sw      s0,28(sp)
0x00000054:	03 A0 F0 21 		addu    fp,sp,zero
0x00000058:	AF C4 00 28 		sw      a0,40(fp)
0x0000005C:	8F C2 00 28 		lw      v0,40(fp)
0x00000060:	00 20 08 25 		or      at,at,zero
0x00000064:	14 40 00 04 		bne     v0,zero,16
0x00000078:	8F C3 00 28 		lw      v1,40(fp)
0x0000007C:	24 02 00 01 		addiu   v0,zero,1
0x00000080:	14 62 00 04 		bne     v1,v0,16
0x00000094:	8F C2 00 28 		lw      v0,40(fp)
0x00000098:	00 20 08 25 		or      at,at,zero
0x0000009C:	24 42 FF FF 		addiu   v0,v0,-1
0x000000A0:	00 40 20 21 		addu    a0,v0,zero
0x000000A4:	0C 00 00 11 		jal     0x00000044
0x00000044:	27 BD FF D8 		addiu   sp,sp,-40
0x00000048:	AF BF 00 24 		sw      ra,36(sp)
0x0000004C:	AF BE 00 20 		sw      fp,32(sp)
0x00000050:	AF B0 00 1C 		sw      s0,28(sp)
0x00000054:	03 A0 F0 21 		addu    fp,sp,zero
0x00000058:	AF C4 00 28 		sw      a0,40(fp)
0x0000005C:	8F C2 00 28 		lw      v0,40(fp)
0x00000060:	00 20 08 25 		or      at,at,zero
0x00000064:	14 40 00 04 		bne     v0,zero,16
0x00000078:	8F C3 00 28 		lw      v1,40(fp)
0x0000007C:	24 02 00 01 		addiu   v0,zero,1
0x00000080:	14 62 00 04 		bne     v1,v0,16
0x00000094:	8F C2 00 28 		lw      v0,40(fp)
0x00000098:	00 20 08 25 		or      at,at,zero
0x0000009C:	24 42 FF FF 		addiu   v0,v0,-1
0x000000A0:	00 40 20 21 		addu    a0,v0,zero
0x000000A4:	0C 00 00 11 		jal     0x00000044
0x00000044:	27 BD FF D8 		addiu   sp,sp,-40
0x00000048:	AF BF 00 24 		sw      ra,36(sp)
0x0000004C:	AF BE 00 20 		sw      fp,32(sp)
0x00000050:	AF B0 00 1C 		sw      s0,28(sp)
0x00000054:	03 A0 F0 21 		addu    fp,sp,zero
0x00000058:	AF C4 00 28 		sw      a0,40(fp)
0x0000005C:	8F C2 00 28 		lw      v0,40(fp)
0x00000060:	00 20 08 25 		or      at,at,zero
0x00000064:	14 40 00 04 		bne     v0,zero,16
0x00000078:	8F C3 00 28 		lw      v1,40(fp)
0x0000007C:	24 02 00 01 		addiu   v0,zero,1
0x00000080:	14 62 00 04 		bne     v1,v0,16
0x00000084:	00 20 08 25 		or      at,at,zero
0x00000088:	24 02 00 01 		addiu   v0,zero,1
0x0000008C:	08 00 00 33 		j       0x000000CC
0x000000CC:	03 C0 E8 21 		addu    sp,fp,zero
0x000000D0:	8F BF 00 24 		lw      ra,36(sp)
0x000000D4:	8F BE 00 20 		lw      fp,32(sp)
0x000000D8:	8F B0 00 1C 		lw      s0,28(sp)
0x000000DC:	27 BD 00 28 		addiu   sp,sp,40
0x000000E0:	03 E0 00 08 		jr      ra
0x000000A8:	00 20 08 25 		or      at,at,zero
0x000000AC:	00 40 80 21 		addu    s0,v0,zero
0x000000B0:	8F C2 00 28 		lw      v0,40(fp)
0x000000B4:	00 20 08 25 		or      at,at,zero
0x000000B8:	24 42 FF FE 		addiu   v0,v0,-2
0x000000BC:	00 40 20 21 		addu    a0,v0,zero
0x000000C0:	0C 00 00 11 		jal     0x00000044
0x00000044:	27 BD FF D8 		addiu   sp,sp,-40
0x00000048:	AF BF 00 24 		sw      ra,36(sp)
0x0000004C:	AF BE 00 20 		sw      fp,32(sp)
0x00000050:	AF B0 00 1C 		sw      s0,28(sp)
0x00000054:	03 A0 F0 21 		addu    fp,sp,zero
0x00000058:	AF C4 00 28 		sw      a0,40(fp)
0x0000005C:	8F C2 00 28 		lw      v0,40(fp)
0x00000060:	00 20 08 25 		or      at,at,zero
0x00000064:	14 40 00 04 		bne     v0,zero,16
0x00000068:	00 20 08 25 		or      at,at,zero
0x0000006C:	00 00 10 21 		addu    v0,zero,zero
0x00000070:	08 00 00 33 		j       0x000000CC
0x000000CC:	03 C0 E8 21 		addu    sp,fp,zero
0x000000D0:	8F BF 00 24 		lw      ra,36(sp)
0x000000D4:	8F BE 00 20 		lw      fp,32(sp)
0x000000D8:	8F B0 00 1C 		lw      s0,28(sp)
0x000000DC:	27 BD 00 28 		addiu   sp,sp,40
0x000000E0:	03 E0 00 08 		jr      ra
0x000000C4:	00 20 08 25 		or      at,at,zero
0x000000C8:	02 02 10 21 		addu    v0,s0,v0
0x000000CC:	03 C0 E8 21 		addu    sp,fp,zero
0x000000D0:	8F BF 00 24 		lw      ra,36(sp)
0x000000D4:	8F BE 00 20 		lw      fp,32(sp)
0x000000D8:	8F B0 00 1C 		lw      s0,28(sp)
0x000000DC:	27 BD 00 28 		addiu   sp,sp,40
0x000000E0:	03 E0 00 08 		jr      ra
0x000000A8:	00 20 08 25 		or      at,at,zero
0x000000AC:	00 40 80 21 		addu    s0,v0,zero
0x000000B0:	8F C2 00 28 		lw      v0,40(fp)
0x000000B4:	00 20 08 25 		or      at,at,zero
0x000000B8:	24 42 FF FE 		addiu   v0,v0,-2
0x000000BC:	00 40 20 21 		addu    a0,v0,zero
0x000000C0:	0C 00 00 11 		jal     0x00000044
0x00000044:	27 BD FF D8 		addiu   sp,sp,-40
0x00000048:	AF BF 00 24 		sw      ra,36(sp)
0x0000004C:	AF BE 00 20 		sw      fp,32(sp)
0x00000050:	AF B0 00 1C 		sw      s0,28(sp)
0x00000054:	03 A0 F0 21 		addu    fp,sp,zero
0x00000058:	AF C4 00 28 		sw      a0,40(fp)
0x0000005C:	8F C2 00 28 		lw      v0,40(fp)
0x00000060:	00 20 08 25 		or      at,at,zero
0x00000064:	14 40 00 04 		bne     v0,zero,16
0x00000078:	8F C3 00 28 		lw      v1,40(fp)
0x0000007C:	24 02 00 01 		addiu   v0,zero,1
0x00000080:	14 62 00 04 		bne     v1,v0,16
0x00000084:	00 20 08 25 		or      at,at,zero
0x00000088:	24 02 00 01 		addiu   v0,zero,1
0x0000008C:	08 00 00 33 		j       0x000000CC
0x000000CC:	03 C0 E8 21 		addu    sp,fp,zero
0x000000D0:	8F BF 00 24 		lw      ra,36(sp)
0x000000D4:	8F BE 00 20 		lw      fp,32(sp)
0x000000D8:	8F B0 00 1C 		lw      s0,28(sp)
0x000000DC:	27 BD 00 28 		addiu   sp,sp,40
0x000000E0:	03 E0 00 08 		jr      ra
0x000000C4:	00 20 08 25 		or      at,at,zero
0x000000C8:	02 02 10 21 		addu    v0,s0,v0
0x000000CC:	03 C0 E8 21 		addu    sp,fp,zero
0x000000D0:	8F BF 00 24 		lw      ra,36(sp)
0x000000D4:	8F BE 00 20 		lw      fp,32(sp)
0x000000D8:	8F B0 00 1C 		lw      s0,28(sp)
0x000000DC:	27 BD 00 28 		addiu   sp,sp,40
0x000000E0:	03 E0 00 08 		jr      ra
0x000000A8:	00 20 08 25 		or      at,at,zero
0x000000AC:	00 40 80 21 		addu    s0,v0,zero
0x000000B0:	8F C2 00 28 		lw      v0,40(fp)
0x000000B4:	00 20 08 25 		or      at,at,zero
0x000000B8:	24 42 FF FE 		addiu   v0,v0,-2
0x000000BC:	00 40 20 21 		addu    a0,v0,zero
0x000000C0:	0C 00 00 11 		jal     0x00000044
0x00000044:	27 BD FF D8 		addiu   sp,sp,-40
0x00000048:	AF BF 00 24 		sw      ra,36(sp)
0x0000004C:	AF BE 00 20 		sw      fp,32(sp)
0x00000050:	AF B0 00 1C 		sw      s0,28(sp)
0x00000054:	03 A0 F0 21 		addu    fp,sp,zero
0x00000058:	AF C4 00 28 		sw      a0,40(fp)
0x0000005C:	8F C2 00 28 		lw      v0,40(fp)
0x00000060:	00 20 08 25 		or      at,at,zero
0x00000064:	14 40 00 04 		bne     v0,zero,16
0x00000078:	8F C3 00 28 		lw      v1,40(fp)
0x0000007C:	24 02 00 01 		addiu   v0,zero,1
0x00000080:	14 62 00 04 		bne     v1,v0,16
0x00000094:	8F C2 00 28 		lw      v0,40(fp)
0x00000098:	00 20 08 25 		or      at,at,zero
0x0000009C:	24 42 FF FF 		addiu   v0,v0,-1
0x000000A0:	00 40 20 21 		addu    a0,v0,zero
0x000000A4:	0C 00 00 11 		jal     0x00000044
0x00000044:	27 BD FF D8 		addiu   sp,sp,-40
0x00000048:	AF BF 00 24 		sw      ra,36(sp)
0x0000004C:	AF BE 00 20 		sw      fp,32(sp)
0x00000050:	AF B0 00 1C 		sw      s0,28(sp)
0x00000054:	03 A0 F0 21 		addu    fp,sp,zero
0x00000058:	AF C4 00 28 		sw      a0,40(fp)
0x0000005C:	8F C2 00 28 		lw      v0,40(fp)
0x00000060:	00 20 08 25 		or      at,at,zero
0x00000064:	14 40 00 04 		bne     v0,zero,16
0x00000078:	8F C3 00 28 		lw      v1,40(fp)
0x0000007C:	24 02 00 01 		addiu   v0,zero,1
0x00000080:	14 62 00 04 		bne     v1,v0,16
0x00000084:	00 20 08 25 		or      at,at,zero
0x00000088:	24 02 00 01 		addiu   v0,zero,1
0x0000008C:	08 00 00 33 		j       0x000000CC
0x000000CC:	03 C0 E8 21 		addu    sp,fp,zero
0x000000D0:	8F BF 00 24 		lw      ra,36(sp)
0x000000D4:	8F BE 00 20 		lw      fp,32(sp)
0x000000D8:	8F B0 00 1C 		lw      s0,28(sp)
0x000000DC:	27 BD 00 28 		addiu   sp,sp,40
0x000000E0:	03 E0 00 08 		jr      ra
0x000000A8:	00 20 08 25 		or      at,at,zero
0x000000AC:	00 40 80 21 		addu    s0,v0,zero
0x000000B0:	8F C2 00 28 		lw      v0,40(fp)
0x000000B4:	00 20 08 25 		or      at,at,zero
0x000000B8:	24 42 FF FE 		addiu   v0,v0,-2
0x000000BC:	00 40 20 21 		addu    a0,v0,zero
0x000000C0:	0C 00 00 11 		jal     0x00000044
0x00000044:	27 BD FF D8 		addiu   sp,sp,-40
0x00000048:	AF BF 00 24 		sw      ra,36(sp)
0x0000004C:	AF BE 00 20 		sw      fp,32(sp)
0x00000050:	AF B0 00 1C 		sw      s0,28(sp)
0x00000054:	03 A0 F0 21 		addu    fp,sp,zero
0x00000058:	AF C4 00 28 		sw      a0,40(fp)
0x0000005C:	8F C2 00 28 		lw      v0,40(fp)
0x00000060:	00 20 08 25 		or      at,at,zero
0x00000064:	14 40 00 04 		bne     v0,zero,16
0x00000068:	00 20 08 25 		or      at,at,zero
0x0000006C:	00 00 10 21 		addu    v0,zero,zero
0x00000070:	08 00 00 33 		j       0x000000CC
0x000000CC:	03 C0 E8 21 		addu    sp,fp,zero
0x000000D0:	8F BF 00 24 		lw      ra,36(sp)
0x000000D4:	8F BE 00 20 		lw      fp,32(sp)
0x000000D8:	8F B0 00 1C 		lw      s0,28(sp)
0x000000DC:	27 BD 00 28 		addiu   sp,sp,40
0x000000E0:	03 E0 00 08 		jr      ra
0x000000C4:	00 20 08 25 		or      at,at,zero
0x000000C8:	02 02 10 21 		addu    v0,s0,v0
0x000000CC:	03 C0 E8 21 		addu    sp,fp,zero
0x000000D0:	8F BF 00 24 		lw      ra,36(sp)
0x000000D4:	8F BE 00 20 		lw      fp,32(sp)
0x000000D8:	8F B0 00 1C 		lw      s0,28(sp)
0x000000DC:	27 BD 00 28 		addiu   sp,sp,40
0x000000E0:	03 E0 00 08 		jr      ra
0x000000C4:	00 20 08 25 		or      at,at,zero
0x000000C8:	02 02 10 21 		addu    v0,s0,v0
0x000000CC:	03 C0 E8 21 		addu    sp,fp,zero
0x000000D0:	8F BF 00 24 		lw      ra,36(sp)
0x000000D4:	8F BE 00 20 		lw      fp,32(sp)
0x000000D8:	8F B0 00 1C 		lw      s0,28(sp)
0x000000DC:	27 BD 00 28 		addiu   sp,sp,40
0x000000E0:	03 E0 00 08 		jr      ra
0x000000A8:	00 20 08 25 		or      at,at,zero
0x000000AC:	00 40 80 21 		addu    s0,v0,zero
0x000000B0:	8F C2 00 28 		lw      v0,40(fp)
0x000000B4:	00 20 08 25 		or      at,at,zero
0x000000B8:	24 42 FF FE 		addiu   v0,v0,-2
0x000000BC:	00 40 20 21 		addu    a0,v0,zero
0x000000C0:	0C 00 00 11 		jal     0x00000044
0x00000044:	27 BD FF D8 		addiu   sp,sp,-40
0x00000048:	AF BF 00 24 		sw      ra,36(sp)
0x0000004C:	AF BE 00 20 		sw      fp,32(sp)
0x00000050:	AF B0 00 1C 		sw      s0,28(sp)
0x00000054:	03 A0 F0 21 		addu    fp,sp,zero
0x00000058:	AF C4 00 28 		sw      a0,40(fp)
0x0000005C:	8F C2 00 28 		lw      v0,40(fp)
0x00000060:	00 20 08 25 		or      at,at,zero
0x00000064:	14 40 00 04 		bne     v0,zero,16
0x00000078:	8F C3 00 28 		lw      v1,40(fp)
0x0000007C:	24 02 00 01 		addiu   v0,zero,1
0x00000080:	14 62 00 04 		bne     v1,v0,16
0x00000094:	8F C2 00 28 		lw      v0,40(fp)
0x00000098:	00 20 08 25 		or      at,at,zero
0x0000009C:	24 42 FF FF 		addiu   v0,v0,-1
0x000000A0:	00 40 20 21 		addu    a0,v0,zero
0x000000A4:	0C 00 00 11 		jal     0x00000044
0x00000044:	27 BD FF D8 		addiu   sp,sp,-40
0x00000048:	AF BF 00 24 		sw      ra,36(sp)
0x0000004C:	AF BE 00 20 		sw      fp,32(sp)
0x00000050:	AF B0 00 1C 		sw      s0,28(sp)
0x00000054:	03 A0 F0 21 		addu    fp,sp,zero
0x00000058:	AF C4 00 28 		sw      a0,40(fp)
0x0000005C:	8F C2 00 28 		lw      v0,40(fp)
0x00000060:	00 20 08 25 		or      at,at,zero
0x00000064:	14 40 00 04 		bne     v0,zero,16
0x00000078:	8F C3 00 28 		lw      v1,40(fp)
0x0000007C:	24 02 00 01 		addiu   v0,zero,1
0x00000080:	14 62 00 04 		bne     v1,v0,16
0x00000094:	8F C2 00 28 		lw      v0,40(fp)
0x00000098:	00 20 08 25 		or      at,at,zero
0x0000009C:	24 42 FF FF 		addiu   v0,v0,-1
0x000000A0:	00 40 20 21 		addu    a0,v0,zero
0x000000A4:	0C 00 00 11 		jal     0x00000044
0x00000044:	27 BD FF D8 		addiu   sp,sp,-40
0x00000048:	AF BF 00 24 		sw      ra,36(sp)
0x0000004C:	AF BE 00 20 		sw      fp,32(sp)
0x00000050:	AF B0 00 1C 		sw      s0,28(sp)
0x00000054:	03 A0 F0 21 		addu    fp,sp,zero
0x00000058:	AF C4 00 28 		sw      a0,40(fp)
0x0000005C:	8F C2 00 28 		lw      v0,40(fp)
0x00000060:	00 20 08 25 		or      at,at,zero
0x00000064:	14 40 00 04 		bne     v0,zero,16
0x00000078:	8F C3 00 28 		lw      v1,40(fp)
0x0000007C:	24 02 00 01 		addiu   v0,zero,1
0x00000080:	14 62 00 04 		bne     v1,v0,16
0x00000084:	00 20 08 25 		or      at,at,zero
0x00000088:	24 02 00 01 		addiu   v0,zero,1
0x0000008C:	08 00 00 33 		j       0x000000CC
0x000000CC:	03 C0 E8 21 		addu    sp,fp,zero
0x000000D0:	8F BF 00 24 		lw      ra,36(sp)
0x000000D4:	8F BE 00 20 		lw      fp,32(sp)
0x000000D8:	8F B0 00 1C 		lw      s0,28(sp)
0x000000DC:	27 BD 00 28 		addiu   sp,sp,40
0x000000E0:	03 E0 00 08 		jr      ra
0x000000A8:	00 20 08 25 		or      at,at,zero
0x000000AC:	00 40 80 21 		addu    s0,v0,zero
0x000000B0:	8F C2 00 28 		lw      v0,40(fp)
0x000000B4:	00 20 08 25 		or      at,at,zero
0x000000B8:	24 42 FF FE 		addiu   v0,v0,-2
0x000000BC:	00 40 20 21 		addu    a0,v0,zero
0x000000C0:	0C 00 00 11 		jal     0x00000044
0x00000044:	27 BD FF D8 		addiu   sp,sp,-40
0x00000048:	AF BF 00 24 		sw      ra,36(sp)
0x0000004C:	AF BE 00 20 		sw      fp,32(sp)
0x00000050:	AF B0 00 1C 		sw      s0,28(sp)
0x00000054:	03 A0 F0 21 		addu    fp,sp,zero
0x00000058:	AF C4 00 28 		sw      a0,40(fp)
0x0000005C:	8F C2 00 28 		lw      v0,40(fp)
0x00000060:	00 20 08 25 		or      at,at,zero
0x00000064:	14 40 00 04 		bne     v0,zero,16
0x00000068:	00 20 08 25 		or      at,at,zero
0x0000006C:	00 00 10 21 		addu    v0,zero,zero
0x00000070:	08 00 00 33 		j       0x000000CC
0x000000CC:	03 C0 E8 21 		addu    sp,fp,zero
0x000000D0:	8F BF 00 24 		lw      ra,36(sp)
0x000000D4:	8F BE 00 20 		lw      fp,32(sp)
0x000000D8:	8F B0 00 1C 		lw      s0,28(sp)
0x000000DC:	27 BD 00 28 		addiu   sp,sp,40
0x000000E0:	03 E0 00 08 		jr      ra
0x000000C4:	00 20 08 25 		or      at,at,zero
0x000000C8:	02 02 10 21 		addu    v0,s0,v0
0x000000CC:	03 C0 E8 21 		addu    sp,fp,zero
0x000000D0:	8F BF 00 24 		lw      ra,36(sp)
0x000000D4:	8F BE 00 20 		lw      fp,32(sp)
0x000000D8:	8F B0 00 1C 		lw      s0,28(sp)
0x000000DC:	27 BD 00 28 		addiu   sp,sp,40
0x000000E0:	03 E0 00 08 		jr      ra
0x000000A8:	00 20 08 25 		or      at,at,zero
0x000000AC:	00 40 80 21 		addu    s0,v0,zero
0x000000B0:	8F C2 00 28 		lw      v0,40(fp)
0x000000B4:	00 20 08 25 		or      at,at,zero
0x000000B8:	24 42 FF FE 		addiu   v0,v0,-2
0x000000BC:	00 40 20 21 		addu    a0,v0,zero
0x000000C0:	0C 00 00 11 		jal     0x00000044
0x00000044:	27 BD FF D8 		addiu   sp,sp,-40
0x00000048:	AF BF 00 24 		sw      ra,36(sp)
0x0000004C:	AF BE 00 20 		sw      fp,32(sp)
0x00000050:	AF B0 00 1C 		sw      s0,28(sp)
0x00000054:	03 A0 F0 21 		addu    fp,sp,zero
0x00000058:	AF C4 00 28 		sw      a0,40(fp)
0x0000005C:	8F C2 00 28 		lw      v0,40(fp)
0x00000060:	00 20 08 25 		or      at,at,zero
0x00000064:	14 40 00 04 		bne     v0,zero,16
0x00000078:	8F C3 00 28 		lw      v1,40(fp)
0x0000007C:	24 02 00 01 		addiu   v0,zero,1
0x00000080:	14 62 00 04 		bne     v1,v0,16
0x00000084:	00 20 08 25 		or      at,at,zero
0x00000088:	24 02 00 01 		addiu   v0,zero,1
0x0000008C:	08 00 00 33 		j       0x000000CC
0x000000CC:	03 C0 E8 21 		addu    sp,fp,zero
0x000000D0:	8F BF 00 24 		lw      ra,36(sp)
0x000000D4:	8F BE 00 20 		lw      fp,32(sp)
0x000000D8:	8F B0 00 1C 		lw      s0,28(sp)
0x000000DC:	27 BD 00 28 		addiu   sp,sp,40
0x000000E0:	03 E0 00 08 		jr      ra
0x000000C4:	00 20 08 25 		or      at,at,zero
0x000000C8:	02 02 10 21 		addu    v0,s0,v0
0x000000CC:	03 C0 E8 21 		addu    sp,fp,zero
0x000000D0:	8F BF 00 24 		lw      ra,36(sp)
0x000000D4:	8F BE 00 20 		lw      fp,32(sp)
0x000000D8:	8F B0 00 1C 		lw      s0,28(sp)
0x000000DC:	27 BD 00 28 		addiu   sp,sp,40
0x000000E0:	03 E0 00 08 		jr      ra
0x000000C4:	00 20 08 25 		or      at,at,zero
0x000000C8:	02 02 10 21 		addu    v0,s0,v0
0x000000CC:	03 C0 E8 21 		addu    sp,fp,zero
0x000000D0:	8F BF 00 24 		lw      ra,36(sp)
0x000000D4:	8F BE 00 20 		lw      fp,32(sp)
0x000000D8:	8F B0 00 1C 		lw      s0,28(sp)
0x000000DC:	27 BD 00 28 		addiu   sp,sp,40
0x000000E0:	03 E0 00 08 		jr      ra
0x000000A8:	00 20 08 25 		or      at,at,zero
0x000000AC:	00 40 80 21 		addu    s0,v0,zero
0x000000B0:	8F C2 00 28 		lw      v0,40(fp)
0x000000B4:	00 20 08 25 		or      at,at,zero
0x000000B8:	24 42 FF FE 		addiu   v0,v0,-2
0x000000BC:	00 40 20 21 		addu    a0,v0,zero
0x000000C0:	0C 00 00 11 		jal     0x00000044
0x00000044:	27 BD FF D8 		addiu   sp,sp,-40
0x00000048:	AF BF 00 24 		sw      ra,36(sp)
0x0000004C:	AF BE 00 20 		sw      fp,32(sp)
0x00000050:	AF B0 00 1C 		sw      s0,28(sp)
0x00000054:	03 A0 F0 21 		addu    fp,sp,zero
0x00000058:	AF C4 00 28 		sw      a0,40(fp)
0x0000005C:	8F C2 00 28 		lw      v0,40(fp)
0x00000060:	00 20 08 25 		or      at,at,zero
0x00000064:	14 40 00 04 		bne     v0,zero,16
0x00000078:	8F C3 00 28 		lw      v1,40(fp)
0x0000007C:	24 02 00 01 		addiu   v0,zero,1
0x00000080:	14 62 00 04 		bne     v1,v0,16
0x00000094:	8F C2 00 28 		lw      v0,40(fp)
0x00000098:	00 20 08 25 		or      at,at,zero
0x0000009C:	24 42 FF FF 		addiu   v0,v0,-1
0x000000A0:	00 40 20 21 		addu    a0,v0,zero
0x000000A4:	0C 00 00 11 		jal     0x00000044
0x00000044:	27 BD FF D8 		addiu   sp,sp,-40
0x00000048:	AF BF 00 24 		sw      ra,36(sp)
0x0000004C:	AF BE 00 20 		sw      fp,32(sp)
0x00000050:	AF B0 00 1C 		sw      s0,28(sp)
0x00000054:	03 A0 F0 21 		addu    fp,sp,zero
0x00000058:	AF C4 00 28 		sw      a0,40(fp)
0x0000005C:	8F C2 00 28 		lw      v0,40(fp)
0x00000060:	00 20 08 25 		or      at,at,zero
0x00000064:	14 40 00 04 		bne     v0,zero,16
0x00000078:	8F C3 00 28 		lw      v1,40(fp)
0x0000007C:	24 02 00 01 		addiu   v0,zero,1
0x00000080:	14 62 00 04 		bne     v1,v0,16
0x00000094:	8F C2 00 28 		lw      v0,40(fp)
0x00000098:	00 20 08 25 		or      at,at,zero
0x0000009C:	24 42 FF FF 		addiu   v0,v0,-1
0x000000A0:	00 40 20 21 		addu    a0,v0,zero
0x000000A4:	0C 00 00 11 		jal     0x00000044
0x00000044:	27 BD FF D8 		addiu   sp,sp,-40
0x00000048:	AF BF 00 24 		sw      ra,36(sp)
0x0000004C:	AF BE 00 20 		sw      fp,32(sp)
0x00000050:	AF B0 00 1C 		sw      s0,28(sp)
0x00000054:	03 A0 F0 21 		addu    fp,sp,zero
0x00000058:	AF C4 00 28 		sw      a0,40(fp)
0x0000005C:	8F C2 00 28 		lw      v0,40(fp)
0x00000060:	00 20 08 25 		or      at,at,zero
0x00000064:	14 40 00 04 		bne     v0,zero,16
0x00000078:	8F C3 00 28 		lw      v1,40(fp)
0x0000007C:	24 02 00 01 		addiu   v0,zero,1
0x00000080:	14 62 00 04 		bne     v1,v0,16
0x00000094:	8F C2 00 28 		lw      v0,40(fp)
0x00000098:	00 20 08 25 		or      at,at,zero
0x0000009C:	24 42 FF FF 		addiu   v0,v0,-1
0x000000A0:	00 40 20 21 		addu    a0,v0,zero
0x000000A4:	0C 00 00 11 		jal     0x00000044
0x00000044:	27 BD FF D8 		addiu   sp,sp,-40
0x00000048:	AF BF 00 24 		sw      ra,36(sp)
0x0000004C:	AF BE 00 20 		sw      fp,32(sp)
0x00000050:	AF B0 00 1C 		sw      s0,28(sp)
0x00000054:	03 A0 F0 21 		addu    fp,sp,zero
0x00000058:	AF C4 00 28 		sw      a0,40(fp)
0x0000005C:	8F C2 00 28 		lw      v0,40(fp)
0x00000060:	00 20 08 25 		or      at,at,zero
0x00000064:	14 40 00 04 		bne     v0,zero,16
0x00000078:	8F C3 00 28 		lw      v1,40(fp)
0x0000007C:	24 02 00 01 		addiu   v0,zero,1
0x00000080:	14 62 00 04 		bne     v1,v0,16
0x00000084:	00 20 08 25 		or      at,at,zero
0x00000088:	24 02 00 01 		addiu   v0,zero,1
0x0000008C:	08 00 00 33 		j       0x000000CC
0x000000CC:	03 C0 E8 21 		addu    sp,fp,zero
0x000000D0:	8F BF 00 24 		lw      ra,36(sp)
0x000000D4:	8F BE 00 20 		lw      fp,32(sp)
0x000000D8:	8F B0 00 1C 		lw      s0,28(sp)
0x000000DC:	27 BD 00 28 		addiu   sp,sp,40
0x000000E0:	03 E0 00 08 		jr      ra
0x000000A8:	00 20 08 25 		or      at,at,zero
0x000000AC:	00 40 80 21 		addu    s0,v0,zero
0x000000B0:	8F C2 00 28 		lw      v0,40(fp)
0x000000B4:	00 20 08 25 		or      at,at,zero
0x000000B8:	24 42 FF FE 		addiu   v0,v0,-2
0x000000BC:	00 40 20 21 		addu    a0,v0,zero
0x000000C0:	0C 00 00 11 		jal     0x00000044
0x00000044:	27 BD FF D8 		addiu   sp,sp,-40
0x00000048:	AF BF 00 24 		sw      ra,36(sp)
0x0000004C:	AF BE 00 20 		sw      fp,32(sp)
0x00000050:	AF B0 00 1C 		sw      s0,28(sp)
0x00000054:	03 A0 F0 21 		addu    fp,sp,zero
0x00000058:	AF C4 00 28 		sw      a0,40(fp)
0x0000005C:	8F C2 00 28 		lw      v0,40(fp)
0x00000060:	00 20 08 25 		or      at,at,zero
0x00000064:	14 40 00 04 		bne     v0,zero,16
0x00000068:	00 20 08 25 		or      at,at,zero
0x0000006C:	00 00 10 21 		addu    v0,zero,zero
0x00000070:	08 00 00 33 		j       0x000000CC
0x000000CC:	03 C0 E8 21 		addu    sp,fp,zero
0x000000D0:	8F BF 00 24 		lw      ra,36(sp)
0x000000D4:	8F BE 00 20 		lw      fp,32(sp)
0x000000D8:	8F B0 00 1C 		lw      s0,28(sp)
0x000000DC:	27 BD 00 28 		addiu   sp,sp,40
0x000000E0:	03 E0 00 08 		jr      ra
0x000000C4:	00 20 08 25 		or      at,at,zero
0x000000C8:	02 02 10 21 		addu    v0,s0,v0
0x000000CC:	03 C0 E8 21 		addu    sp,fp,zero
0x000000D0:	8F BF 00 24 		lw      ra,36(sp)
0x000000D4:	8F BE 00 20 		lw      fp,32(sp)
0x000000D8:	8F B0 00 1C 		lw      s0,28(sp)
0x000000DC:	27 BD 00 28 		addiu   sp,sp,40
0x000000E0:	03 E0 00 08 		jr      ra
0x000000A8:	00 20 08 25 		or      at,at,zero
0x000000AC:	00 40 80 21 		addu    s0,v0,zero
0x000000B0:	8F C2 00 28 		lw      v0,40(fp)
0x000000B4:	00 20 08 25 		or      at,at,zero
0x000000B8:	24 42 FF FE 		addiu   v0,v0,-2
0x000000BC:	00 40 20 21 		addu    a0,v0,zero
0x000000C0:	0C 00 00 11 		jal     0x00000044
0x00000044:	27 BD FF D8 		addiu   sp,sp,-40
0x00000048:	AF BF 00 24 		sw      ra,36(sp)
0x0000004C:	AF BE 00 20 		sw      fp,32(sp)
0x00000050:	AF B0 00 1C 		sw      s0,28(sp)
0x00000054:	03 A0 F0 21 		addu    fp,sp,zero
0x00000058:	AF C4 00 28 		sw      a0,40(fp)
0x0000005C:	8F C2 00 28 		lw      v0,40(fp)
0x00000060:	00 20 08 25 		or      at,at,zero
0x00000064:	14 40 00 04 		bne     v0,zero,16
0x00000078:	8F C3 00 28 		lw      v1,40(fp)
0x0000007C:	24 02 00 01 		addiu   v0,zero,1
0x00000080:	14 62 00 04 		bne     v1,v0,16
0x00000084:	00 20 08 25 		or      at,at,zero
0x00000088:	24 02 00 01 		addiu   v0,zero,1
0x0000008C:	08 00 00 33 		j       0x000000CC
0x000000CC:	03 C0 E8 21 		addu    sp,fp,zero
0x000000D0:	8F BF 00 24 		lw      ra,36(sp)
0x000000D4:	8F BE 00 20 		lw      fp,32(sp)
0x000000D8:	8F B0 00 1C 		lw      s0,28(sp)
0x000000DC:	27 BD 00 28 		addiu   sp,sp,40
0x000000E0:	03 E0 00 08 		jr      ra
0x000000C4:	00 20 08 25 		or      at,at,zero
0x000000C8:	02 02 10 21 		addu    v0,s0,v0
0x000000CC:	03 C0 E8 21 		addu    sp,fp,zero
0x000000D0:	8F BF 00 24 		lw      ra,36(sp)
0x000000D4:	8F BE 00 20 		lw      fp,32(sp)
0x000000D8:	8F B0 00 1C 		lw      s0,28(sp)
0x000000DC:	27 BD 00 28 		addiu   sp,sp,40
0x000000E0:	03 E0 00 08 		jr      ra
0x000000A8:	00 20 08 25 		or      at,at,zero
0x000000AC:	00 40 80 21 		addu    s0,v0,zero
0x000000B0:	8F C2 00 28 		lw      v0,40(fp)
0x000000B4:	00 20 08 25 		or      at,at,zero
0x000000B8:	24 42 FF FE 		addiu   v0,v0,-2
0x000000BC:	00 40 20 21 		addu    a0,v0,zero
0x000000C0:	0C 00 00 11 		jal     0x00000044
0x00000044:	27 BD FF D8 		addiu   sp,sp,-40
0x00000048:	AF BF 00 24 		sw      ra,36(sp)
0x0000004C:	AF BE 00 20 		sw      fp,32(sp)
0x00000050:	AF B0 00 1C 		sw      s0,28(sp)
0x00000054:	03 A0 F0 21 		addu    fp,sp,zero
0x00000058:	AF C4 00 28 		sw      a0,40(fp)
0x0000005C:	8F C2 00 28 		lw      v0,40(fp)
0x00000060:	00 20 08 25 		or      at,at,zero
0x00000064:	14 40 00 04 		bne     v0,zero,16
0x00000078:	8F C3 00 28 		lw      v1,40(fp)
0x0000007C:	24 02 00 01 		addiu   v0,zero,1
0x00000080:	14 62 00 04 		bne     v1,v0,16
0x00000094:	8F C2 00 28 		lw      v0,40(fp)
0x00000098:	00 20 08 25 		or      at,at,zero
0x0000009C:	24 42 FF FF 		addiu   v0,v0,-1
0x000000A0:	00 40 20 21 		addu    a0,v0,zero
0x000000A4:	0C 00 00 11 		jal     0x00000044
0x00000044:	27 BD FF D8 		addiu   sp,sp,-40
0x00000048:	AF BF 00 24 		sw      ra,36(sp)
0x0000004C:	AF BE 00 20 		sw      fp,32(sp)
0x00000050:	AF B0 00 1C 		sw      s0,28(sp)
0x00000054:	03 A0 F0 21 		addu    fp,sp,zero
0x00000058:	AF C4 00 28 		sw      a0,40(fp)
0x0000005C:	8F C2 00 28 		lw      v0,40(fp)
0x00000060:	00 20 08 25 		or      at,at,zero
0x00000064:	14 40 00 04 		bne     v0,zero,16
0x00000078:	8F C3 00 28 		lw      v1,40(fp)
0x0000007C:	24 02 00 01 		addiu   v0,zero,1
0x00000080:	14 62 00 04 		bne     v1,v0,16
0x00000084:	00 20 08 25 		or      at,at,zero
0x00000088:	24 02 00 01 		addiu   v0,zero,1
0x0000008C:	08 00 00 33 		j       0x000000CC
0x000000CC:	03 C0 E8 21 		addu    sp,fp,zero
0x000000D0:	8F BF 00 24 		lw      ra,36(sp)
0x000000D4:	8F BE 00 20 		lw      fp,32(sp)
0x000000D8:	8F B0 00 1C 		lw      s0,28(sp)
0x000000DC:	27 BD 00 28 		addiu   sp,sp,40
0x000000E0:	03 E0 00 08 		jr      ra
0x000000A8:	00 20 08 25 		or      at,at,zero
0x000000AC:	00 40 80 21 		addu    s0,v0,zero
0x000000B0:	8F C2 00 28 		lw      v0,40(fp)
0x000000B4:	00 20 08 25 		or      at,at,zero
0x000000B8:	24 42 FF FE 		addiu   v0,v0,-2
0x000000BC:	00 40 20 21 		addu    a0,v0,zero
0x000000C0:	0C 00 00 11 		jal     0x00000044
0x00000044:	27 BD FF D8 		addiu   sp,sp,-40
0x00000048:	AF BF 00 24 		sw      ra,36(sp)
0x0000004C:	AF BE 00 20 		sw      fp,32(sp)
0x00000050:	AF B0 00 1C 		sw      s0,28(sp)
0x00000054:	03 A0 F0 21 		addu    fp,sp,zero
0x00000058:	AF C4 00 28 		sw      a0,40(fp)
0x0000005C:	8F C2 00 28 		lw      v0,40(fp)
0x00000060:	00 20 08 25 		or      at,at,zero
0x00000064:	14 40 00 04 		bne     v0,zero,16
0x00000068:	00 20 08 25 		or      at,at,zero
0x0000006C:	00 00 10 21 		addu    v0,zero,zero
0x00000070:	08 00 00 33 		j       0x000000CC
0x000000CC:	03 C0 E8 21 		addu    sp,fp,zero
0x000000D0:	8F BF 00 24 		lw      ra,36(sp)
0x000000D4:	8F BE 00 20 		lw      fp,32(sp)
0x000000D8:	8F B0 00 1C 		lw      s0,28(sp)
0x000000DC:	27 BD 00 28 		addiu   sp,sp,40
0x000000E0:	03 E0 00 08 		jr      ra
0x000000C4:	00 20 08 25 		or      at,at,zero
0x000000C8:	02 02 10 21 		addu    v0,s0,v0
0x000000CC:	03 C0 E8 21 		addu    sp,fp,zero
0x000000D0:	8F BF 00 24 		lw      ra,36(sp)
0x000000D4:	8F BE 00 20 		lw      fp,32(sp)
0x000000D8:	8F B0 00 1C 		lw      s0,28(sp)
0x000000DC:	27 BD 00 28 		addiu   sp,sp,40
0x000000E0:	03 E0 00 08 		jr      ra
0x000000C4:	00 20 08 25 		or      at,at,zero
0x000000C8:	02 02 10 21 		addu    v0,s0,v0
0x000000CC:	03 C0 E8 21 		addu    sp,fp,zero
0x000000D0:	8F BF 00 24 		lw      ra,36(sp)
0x000000D4:	8F BE 00 20 		lw      fp,32(sp)
0x000000D8:	8F B0 00 1C 		lw      s0,28(sp)
0x000000DC:	27 BD 00 28 		addiu   sp,sp,40
0x000000E0:	03 E0 00 08 		jr      ra
0x000000C4:	00 20 08 25 		or      at,at,zero
0x000000C8:	02 02 10 21 		addu    v0,s0,v0
0x000000CC:	03 C0 E8 21 		addu    sp,fp,zero
0x000000D0:	8F BF 00 24 		lw      ra,36(sp)
0x000000D4:	8F BE 00 20 		lw      fp,32(sp)
0x000000D8:	8F B0 00 1C 		lw      s0,28(sp)
0x000000DC:	27 BD 00 28 		addiu   sp,sp,40
0x000000E0:	03 E0 00 08 		jr      ra
0x000000C4:	00 20 08 25 		or      at,at,zero
0x000000C8:	02 02 10 21 		addu    v0,s0,v0
0x000000CC:	03 C0 E8 21 		addu    sp,fp,zero
0x000000D0:	8F BF 00 24 		lw      ra,36(sp)
0x000000D4:	8F BE 00 20 		lw      fp,32(sp)
0x000000D8:	8F B0 00 1C 		lw      s0,28(sp)
0x000000DC:	27 BD 00 28 		addiu   sp,sp,40
0x000000E0:	03 E0 00 08 		jr      ra
0x000000A8:	00 20 08 25 		or      at,at,zero
0x000000AC:	00 40 80 21 		addu    s0,v0,zero
0x000000B0:	8F C2 00 28 		lw      v0,40(fp)
0x000000B4:	00 20 08 25 		or      at,at,zero
0x000000B8:	24 42 FF FE 		addiu   v0,v0,-2
0x000000BC:	00 40 20 21 		addu    a0,v0,zero
0x000000C0:	0C 00 00 11 		jal     0x00000044
0x00000044:	27 BD FF D8 		addiu   sp,sp,-40
0x00000048:	AF BF 00 24 		sw      ra,36(sp)
0x0000004C:	AF BE 00 20 		sw      fp,32(sp)
0x00000050:	AF B0 00 1C 		sw      s0,28(sp)
0x00000054:	03 A0 F0 21 		addu    fp,sp,zero
0x00000058:	AF C4 00 28 		sw      a0,40(fp)
0x0000005C:	8F C2 00 28 		lw      v0,40(fp)
0x00000060:	00 20 08 25 		or      at,at,zero
0x00000064:	14 40 00 04 		bne     v0,zero,16
0x00000078:	8F C3 00 28 		lw      v1,40(fp)
0x0000007C:	24 02 00 01 		addiu   v0,zero,1
0x00000080:	14 62 00 04 		bne     v1,v0,16
0x00000094:	8F C2 00 28 		lw      v0,40(fp)
0x00000098:	00 20 08 25 		or      at,at,zero
0x0000009C:	24 42 FF FF 		addiu   v0,v0,-1
0x000000A0:	00 40 20 21 		addu    a0,v0,zero
0x000000A4:	0C 00 00 11 		jal     0x00000044
0x00000044:	27 BD FF D8 		addiu   sp,sp,-40
0x00000048:	AF BF 00 24 		sw      ra,36(sp)
0x0000004C:	AF BE 00 20 		sw      fp,32(sp)
0x00000050:	AF B0 00 1C 		sw      s0,28(sp)
0x00000054:	03 A0 F0 21 		addu    fp,sp,zero
0x00000058:	AF C4 00 28 		sw      a0,40(fp)
0x0000005C:	8F C2 00 28 		lw      v0,40(fp)
0x00000060:	00 20 08 25 		or      at,at,zero
0x00000064:	14 40 00 04 		bne     v0,zero,16
0x00000078:	8F C3 00 28 		lw      v1,40(fp)
0x0000007C:	24 02 00 01 		addiu   v0,zero,1
0x00000080:	14 62 00 04 		bne     v1,v0,16
0x00000094:	8F C2 00 28 		lw      v0,40(fp)
0x00000098:	00 20 08 25 		or      at,at,zero
0x0000009C:	24 42 FF FF 		addiu   v0,v0,-1
0x000000A0:	00 40 20 21 		addu    a0,v0,zero
0x000000A4:	0C 00 00 11 		jal     0x00000044
0x00000044:	27 BD FF D8 		addiu   sp,sp,-40
0x00000048:	AF BF 00 24 		sw      ra,36(sp)
0x0000004C:	AF BE 00 20 		sw      fp,32(sp)
0x00000050:	AF B0 00 1C 		sw      s0,28(sp)
0x00000054:	03 A0 F0 21 		addu    fp,sp,zero
0x00000058:	AF C4 00 28 		sw      a0,40(fp)
0x0000005C:	8F C2 00 28 		lw      v0,40(fp)
0x00000060:	00 20 08 25 		or      at,at,zero
0x00000064:	14 40 00 04 		bne     v0,zero,16
0x00000078:	8F C3 00 28 		lw      v1,40(fp)
0x0000007C:	24 02 00 01 		addiu   v0,zero,1
0x00000080:	14 62 00 04 		bne     v1,v0,16
0x00000094:	8F C2 00 28 		lw      v0,40(fp)
0x00000098:	00 20 08 25 		or      at,at,zero
0x0000009C:	24 42 FF FF 		addiu   v0,v0,-1
0x000000A0:	00 40 20 21 		addu    a0,v0,zero
0x000000A4:	0C 00 00 11 		jal     0x00000044
0x00000044:	27 BD FF D8 		addiu   sp,sp,-40
0x00000048:	AF BF 00 24 		sw      ra,36(sp)
0x0000004C:	AF BE 00 20 		sw      fp,32(sp)
0x00000050:	AF B0 00 1C 		sw      s0,28(sp)
0x00000054:	03 A0 F0 21 		addu    fp,sp,zero
0x00000058:	AF C4 00 28 		sw      a0,40(fp)
0x0000005C:	8F C2 00 28 		lw      v0,40(fp)
0x00000060:	00 20 08 25 		or      at,at,zero
0x00000064:	14 40 00 04 		bne     v0,zero,16
0x00000078:	8F C3 00 28 		lw      v1,40(fp)
0x0000007C:	24 02 00 01 		addiu   v0,zero,1
0x00000080:	14 62 00 04 		bne     v1,v0,16
0x00000094:	8F C2 00 28 		lw      v0,40(fp)
0x00000098:	00 20 08 25 		or      at,at,zero
0x0000009C:	24 42 FF FF 		addiu   v0,v0,-1
0x000000A0:	00 40 20 21 		addu    a0,v0,zero
0x000000A4:	0C 00 00 11 		jal     0x00000044
0x00000044:	27 BD FF D8 		addiu   sp,sp,-40
0x00000048:	AF BF 00 24 		sw      ra,36(sp)
0x0000004C:	AF BE 00 20 		sw      fp,32(sp)
0x00000050:	AF B0 00 1C 		sw      s0,28(sp)
0x00000054:	03 A0 F0 21 		addu    fp,sp,zero
0x00000058:	AF C4 00 28 		sw      a0,40(fp)
0x0000005C:	8F C2 00 28 		lw      v0,40(fp)
0x00000060:	00 20 08 25 		or      at,at,zero
0x00000064:	14 40 00 04 		bne     v0,zero,16
0x00000078:	8F C3 00 28 		lw      v1,40(fp)
0x0000007C:	24 02 00 01 		addiu   v0,zero,1
0x00000080:	14 62 00 04 		bne     v1,v0,16
0x00000094:	8F C2 00 28 		lw      v0,40(fp)
0x00000098:	00 20 08 25 		or      at,at,zero
0x0000009C:	24 42 FF FF 		addiu   v0,v0,-1
0x000000A0:	00 40 20 21 		addu    a0,v0,zero
0x000000A4:	0C 00 00 11 		jal     0x00000044
0x00000044:	27 BD FF D8 		addiu   sp,sp,-40
0x00000048:	AF BF 00 24 		sw      ra,36(sp)
0x0000004C:	AF BE 00 20 		sw      fp,32(sp)
0x00000050:	AF B0 00 1C 		sw      s0,28(sp)
0x00000054:	03 A0 F0 21 		addu    fp,sp,zero
0x00000058:	AF C4 00 28 		sw      a0,40(fp)
0x0000005C:	8F C2 00 28 		lw      v0,40(fp)
0x00000060:	00 20 08 25 		or      at,at,zero
0x00000064:	14 40 00 04 		bne     v0,zero,16
0x00000078:	8F C3 00 28 		lw      v1,40(fp)
0x0000007C:	24 02 00 01 		addiu   v0,zero,1
0x00000080:	14 62 00 04 		bne     v1,v0,16
0x00000094:	8F C2 00 28 		lw      v0,40(fp)
0x00000098:	00 20 08 25 		or      at,at,zero
0x0000009C:	24 42 FF FF 		addiu   v0,v0,-1
0x000000A0:	00 40 20 21 		addu    a0,v0,zero
0x000000A4:	0C 00 00 11 		jal     0x00000044
0x00000044:	27 BD FF D8 		addiu   sp,sp,-40
0x00000048:	AF BF 00 24 		sw      ra,36(sp)
0x0000004C:	AF BE 00 20 		sw      fp,32(sp)
0x00000050:	AF B0 00 1C 		sw      s0,28(sp)
0x00000054:	03 A0 F0 21 		addu    fp,sp,zero
0x00000058:	AF C4 00 28 		sw      a0,40(fp)
0x0000005C:	8F C2 00 28 		lw      v0,40(fp)
0x00000060:	00 20 08 25 		or      at,at,zero
0x00000064:	14 40 00 04 		bne     v0,zero,16
0x00000078:	8F C3 00 28 		lw      v1,40(fp)
0x0000007C:	24 02 00 01 		addiu   v0,zero,1
0x00000080:	14 62 00 04 		bne     v1,v0,16
0x00000084:	00 20 08 25 		or      at,at,zero
0x00000088:	24 02 00 01 		addiu   v0,zero,1
0x0000008C:	08 00 00 33 		j       0x000000CC
0x000000CC:	03 C0 E8 21 		addu    sp,fp,zero
0x000000D0:	8F BF 00 24 		lw      ra,36(sp)
0x000000D4:	8F BE 00 20 		lw      fp,32(sp)
0x000000D8:	8F B0 00 1C 		lw      s0,28(sp)
0x000000DC:	27 BD 00 28 		addiu   sp,sp,40
0x000000E0:	03 E0 00 08 		jr      ra
0x000000A8:	00 20 08 25 		or      at,at,zero
0x000000AC:	00 40 80 21 		addu    s0,v0,zero
0x000000B0:	8F C2 00 28 		lw      v0,40(fp)
0x000000B4:	00 20 08 25 		or      at,at,zero
0x000000B8:	24 42 FF FE 		addiu   v0,v0,-2
0x000000BC:	00 40 20 21 		addu    a0,v0,zero
0x000000C0:	0C 00 00 11 		jal     0x00000044
0x00000044:	27 BD FF D8 		addiu   sp,sp,-40
0x00000048:	AF BF 00 24 		sw      ra,36(sp)
0x0000004C:	AF BE 00 20 		sw      fp,32(sp)
0x00000050:	AF B0 00 1C 		sw      s0,28(sp)
0x00000054:	03 A0 F0 21 		addu    fp,sp,zero
0x00000058:	AF C4 00 28 		sw      a0,40(fp)
0x0000005C:	8F C2 00 28 		lw      v0,40(fp)
0x00000060:	00 20 08 25 		or      at,at,zero
0x00000064:	14 40 00 04 		bne     v0,zero,16
0x00000068:	00 20 08 25 		or      at,at,zero
0x0000006C:	00 00 10 21 		addu    v0,zero,zero
0x00000070:	08 00 00 33 		j       0x000000CC
0x000000CC:	03 C0 E8 21 		addu    sp,fp,zero
0x000000D0:	8F BF 00 24 		lw      ra,36(sp)
0x000000D4:	8F BE 00 20 		lw      fp,32(sp)
0x000000D8:	8F B0 00 1C 		lw      s0,28(sp)
0x000000DC:	27 BD 00 28 		addiu   sp,sp,40
0x000000E0:	03 E0 00 08 		jr      ra
0x000000C4:	00 20 08 25 		or      at,at,zero
0x000000C8:	02 02 10 21 		addu    v0,s0,v0
0x000000CC:	03 C0 E8 21 		addu    sp,fp,zero
0x000000D0:	8F BF 00 24 		lw      ra,36(sp)
0x000000D4:	8F BE 00 20 		lw      fp,32(sp)
0x000000D8:	8F B0 00 1C 		lw      s0,28(sp)
0x000000DC:	27 BD 00 28 		addiu   sp,sp,40
0x000000E0:	03 E0 00 08 		jr      ra
0x000000A8:	00 20 08 25 		or      at,at,zero
0x000000AC:	00 40 80 21 		addu    s0,v0,zero
0x000000B0:	8F C2 00 28 		lw      v0,40(fp)
0x000000B4:	00 20 08 25 		or      at,at,zero
0x000000B8:	24 42 FF FE 		addiu   v0,v0,-2
0x000000BC:	00 40 20 21 		addu    a0,v0,zero
0x000000C0:	0C 00 00 11 		jal     0x00000044
0x00000044:	27 BD FF D8 		addiu   sp,sp,-40
0x00000048:	AF BF 00 24 		sw      ra,36(sp)
0x0000004C:	AF BE 00 20 		sw      fp,32(sp)
0x00000050:	AF B0 00 1C 		sw      s0,28(sp)
0x00000054:	03 A0 F0 21 		addu    fp,sp,zero
0x00000058:	AF C4 00 28 		sw      a0,40(fp)
0x0000005C:	8F C2 00 28 		lw      v0,40(fp)
0x00000060:	00 20 08 25 		or      at,at,zero
0x00000064:	14 40 00 04 		bne     v0,zero,16
0x00000078:	8F C3 00 28 		lw      v1,40(fp)
0x0000007C:	24 02 00 01 		addiu   v0,zero,1
0x00000080:	14 62 00 04 		bne     v1,v0,16
0x00000084:	00 20 08 25 		or      at,at,zero
0x00000088:	24 02 00 01 		addiu   v0,zero,1
0x0000008C:	08 00 00 33 		j       0x000000CC
0x000000CC:	03 C0 E8 21 		addu    sp,fp,zero
0x000000D0:	8F BF 00 24 		lw      ra,36(sp)
0x000000D4:	8F BE 00 20 		lw      fp,32(sp)
0x000000D8:	8F B0 00 1C 		lw      s0,28(sp)
0x000000DC:	27 BD 00 28 		addiu   sp,sp,40
0x000000E0:	03 E0 00 08 		jr      ra
0x000000C4:	00 20 08 25 		or      at,at,zero
0x000000C8:	02 02 10 21 		addu    v0,s0,v0
0x000000CC:	03 C0 E8 21 		addu    sp,fp,zero
0x000000D0:	8F BF 00 24 		lw      ra,36(sp)
0x000000D4:	8F BE 00 20 		lw      fp,32(sp)
0x000000D8:	8F B0 00 1C 		lw      s0,28(sp)
0x000000DC:	27 BD 00 28 		addiu   sp,sp,40
0x000000E0:	03 E0 00 08 		jr      ra
0x000000A8:	00 20 08 25 		or      at,at,zero
0x000000AC:	00 40 80 21 		addu    s0,v0,zero
0x000000B0:	8F C2 00 28 		lw      v0,40(fp)
0x000000B4:	00 20 08 25 		or      at,at,zero
0x000000B8:	24 42 FF FE 		addiu   v0,v0,-2
0x000000BC:	00 40 20 21 		addu    a0,v0,zero
0x000000C0:	0C 00 00 11 		jal     0x00000044
0x00000044:	27 BD FF D8 		addiu   sp,sp,-40
0x00000048:	AF BF 00 24 		sw      ra,36(sp)
0x0000004C:	AF BE 00 20 		sw      fp,32(sp)
0x00000050:	AF B0 00 1C 		sw      s0,28(sp)
0x00000054:	03 A0 F0 21 		addu    fp,sp,zero
0x00000058:	AF C4 00 28 		sw      a0,40(fp)
0x0000005C:	8F C2 00 28 		lw      v0,40(fp)
0x00000060:	00 20 08 25 		or      at,at,zero
0x00000064:	14 40 00 04 		bne     v0,zero,16
0x00000078:	8F C3 00 28 		lw      v1,40(fp)
0x0000007C:	24 02 00 01 		addiu   v0,zero,1
0x00000080:	14 62 00 04 		bne     v1,v0,16
0x00000094:	8F C2 00 28 		lw      v0,40(fp)
0x00000098:	00 20 08 25 		or      at,at,zero
0x0000009C:	24 42 FF FF 		addiu   v0,v0,-1
0x000000A0:	00 40 20 21 		addu    a0,v0,zero
0x000000A4:	0C 00 00 11 		jal     0x00000044
0x00000044:	27 BD FF D8 		addiu   sp,sp,-40
0x00000048:	AF BF 00 24 		sw      ra,36(sp)
0x0000004C:	AF BE 00 20 		sw      fp,32(sp)
0x00000050:	AF B0 00 1C 		sw      s0,28(sp)
0x00000054:	03 A0 F0 21 		addu    fp,sp,zero
0x00000058:	AF C4 00 28 		sw      a0,40(fp)
0x0000005C:	8F C2 00 28 		lw      v0,40(fp)
0x00000060:	00 20 08 25 		or      at,at,zero
0x00000064:	14 40 00 04 		bne     v0,zero,16
0x00000078:	8F C3 00 28 		lw      v1,40(fp)
0x0000007C:	24 02 00 01 		addiu   v0,zero,1
0x00000080:	14 62 00 04 		bne     v1,v0,16
0x00000084:	00 20 08 25 		or      at,at,zero
0x00000088:	24 02 00 01 		addiu   v0,zero,1
0x0000008C:	08 00 00 33 		j       0x000000CC
0x000000CC:	03 C0 E8 21 		addu    sp,fp,zero
0x000000D0:	8F BF 00 24 		lw      ra,36(sp)
0x000000D4:	8F BE 00 20 		lw      fp,32(sp)
0x000000D8:	8F B0 00 1C 		lw      s0,28(sp)
0x000000DC:	27 BD 00 28 		addiu   sp,sp,40
0x000000E0:	03 E0 00 08 		jr      ra
0x000000A8:	00 20 08 25 		or      at,at,zero
0x000000AC:	00 40 80 21 		addu    s0,v0,zero
0x000000B0:	8F C2 00 28 		lw      v0,40(fp)
0x000000B4:	00 20 08 25 		or      at,at,zero
0x000000B8:	24 42 FF FE 		addiu   v0,v0,-2
0x000000BC:	00 40 20 21 		addu    a0,v0,zero
0x000000C0:	0C 00 00 11 		jal     0x00000044
0x00000044:	27 BD FF D8 		addiu   sp,sp,-40
0x00000048:	AF BF 00 24 		sw      ra,36(sp)
0x0000004C:	AF BE 00 20 		sw      fp,32(sp)
0x00000050:	AF B0 00 1C 		sw      s0,28(sp)
0x00000054:	03 A0 F0 21 		addu    fp,sp,zero
0x00000058:	AF C4 00 28 		sw      a0,40(fp)
0x0000005C:	8F C2 00 28 		lw      v0,40(fp)
0x00000060:	00 20 08 25 		or      at,at,zero
0x00000064:	14 40 00 04 		bne     v0,zero,16
0x00000068:	00 20 08 25 		or      at,at,zero
0x0000006C:	00 00 10 21 		addu    v0,zero,zero
0x00000070:	08 00 00 33 		j       0x000000CC
0x000000CC:	03 C0 E8 21 		addu    sp,fp,zero
0x000000D0:	8F BF 00 24 		lw      ra,36(sp)
0x000000D4:	8F BE 00 20 		lw      fp,32(sp)
0x000000D8:	8F B0 00 1C 		lw      s0,28(sp)
0x000000DC:	27 BD 00 28 		addiu   sp,sp,40
0x000000E0:	03 E0 00 08 		jr      ra
0x000000C4:	00 20 08 25 		or      at,at,zero
0x000000C8:	02 02 10 21 		addu    v0,s0,v0
0x000000CC:	03 C0 E8 21 		addu    sp,fp,zero
0x000000D0:	8F BF 00 24 		lw      ra,36(sp)
0x000000D4:	8F BE 00 20 		lw      fp,32(sp)
0x000000D8:	8F B0 00 1C 		lw      s0,28(sp)
0x000000DC:	27 BD 00 28 		addiu   sp,sp,40
0x000000E0:	03 E0 00 08 		jr      ra
0x000000C4:	00 20 08 25 		or      at,at,zero
0x000000C8:	02 02 10 21 		addu    v0,s0,v0
0x000000CC:	03 C0 E8 21 		addu    sp,fp,zero
0x000000D0:	8F BF 00 24 		lw      ra,36(sp)
0x000000D4:	8F BE 00 20 		lw      fp,32(sp)
0x000000D8:	8F B0 00 1C 		lw      s0,28(sp)
0x000000DC:	27 BD 00 28 		addiu   sp,sp,40
0x000000E0:	03 E0 00 08 		jr      ra
0x000000A8:	00 20 08 25 		or      at,at,zero
0x000000AC:	00 40 80 21 		addu    s0,v0,zero
0x000000B0:	8F C2 00 28 		lw      v0,40(fp)
0x000000B4:	00 20 08 25 		or      at,at,zero
0x000000B8:	24 42 FF FE 		addiu   v0,v0,-2
0x000000BC:	00 40 20 21 		addu    a0,v0,zero
0x000000C0:	0C 00 00 11 		jal     0x00000044
0x00000044:	27 BD FF D8 		addiu   sp,sp,-40
0x00000048:	AF BF 00 24 		sw      ra,36(sp)
0x0000004C:	AF BE 00 20 		sw      fp,32(sp)
0x00000050:	AF B0 00 1C 		sw      s0,28(sp)
0x00000054:	03 A0 F0 21 		addu    fp,sp,zero
0x00000058:	AF C4 00 28 		sw      a0,40(fp)
0x0000005C:	8F C2 00 28 		lw      v0,40(fp)
0x00000060:	00 20 08 25 		or      at,at,zero
0x00000064:	14 40 00 04 		bne     v0,zero,16
0x00000078:	8F C3 00 28 		lw      v1,40(fp)
0x0000007C:	24 02 00 01 		addiu   v0,zero,1
0x00000080:	14 62 00 04 		bne     v1,v0,16
0x00000094:	8F C2 00 28 		lw      v0,40(fp)
0x00000098:	00 20 08 25 		or      at,at,zero
0x0000009C:	24 42 FF FF 		addiu   v0,v0,-1
0x000000A0:	00 40 20 21 		addu    a0,v0,zero
0x000000A4:	0C 00 00 11 		jal     0x00000044
0x00000044:	27 BD FF D8 		addiu   sp,sp,-40
0x00000048:	AF BF 00 24 		sw      ra,36(sp)
0x0000004C:	AF BE 00 20 		sw      fp,32(sp)
0x00000050:	AF B0 00 1C 		sw      s0,28(sp)
0x00000054:	03 A0 F0 21 		addu    fp,sp,zero
0x00000058:	AF C4 00 28 		sw      a0,40(fp)
0x0000005C:	8F C2 00 28 		lw      v0,40(fp)
0x00000060:	00 20 08 25 		or      at,at,zero
0x00000064:	14 40 00 04 		bne     v0,zero,16
0x00000078:	8F C3 00 28 		lw      v1,40(fp)
0x0000007C:	24 02 00 01 		addiu   v0,zero,1
0x00000080:	14 62 00 04 		bne     v1,v0,16
0x00000094:	8F C2 00 28 		lw      v0,40(fp)
0x00000098:	00 20 08 25 		or      at,at,zero
0x0000009C:	24 42 FF FF 		addiu   v0,v0,-1
0x000000A0:	00 40 20 21 		addu    a0,v0,zero
0x000000A4:	0C 00 00 11 		jal     0x00000044
0x00000044:	27 BD FF D8 		addiu   sp,sp,-40
0x00000048:	AF BF 00 24 		sw      ra,36(sp)
0x0000004C:	AF BE 00 20 		sw      fp,32(sp)
0x00000050:	AF B0 00 1C 		sw      s0,28(sp)
0x00000054:	03 A0 F0 21 		addu    fp,sp,zero
0x00000058:	AF C4 00 28 		sw      a0,40(fp)
0x0000005C:	8F C2 00 28 		lw      v0,40(fp)
0x00000060:	00 20 08 25 		or      at,at,zero
0x00000064:	14 40 00 04 		bne     v0,zero,16
0x00000078:	8F C3 00 28 		lw      v1,40(fp)
0x0000007C:	24 02 00 01 		addiu   v0,zero,1
0x00000080:	14 62 00 04 		bne     v1,v0,16
0x00000084:	00 20 08 25 		or      at,at,zero
0x00000088:	24 02 00 01 		addiu   v0,zero,1
0x0000008C:	08 00 00 33 		j       0x000000CC
0x000000CC:	03 C0 E8 21 		addu    sp,fp,zero
0x000000D0:	8F BF 00 24 		lw      ra,36(sp)
0x000000D4:	8F BE 00 20 		lw      fp,32(sp)
0x000000D8:	8F B0 00 1C 		lw      s0,28(sp)
0x000000DC:	27 BD 00 28 		addiu   sp,sp,40
0x000000E0:	03 E0 00 08 		jr      ra
0x000000A8:	00 20 08 25 		or      at,at,zero
0x000000AC:	00 40 80 21 		addu    s0,v0,zero
0x000000B0:	8F C2 00 28 		lw      v0,40(fp)
0x000000B4:	00 20 08 25 		or      at,at,zero
0x000000B8:	24 42 FF FE 		addiu   v0,v0,-2
0x000000BC:	00 40 20 21 		addu    a0,v0,zero
0x000000C0:	0C 00 00 11 		jal     0x00000044
0x00000044:	27 BD FF D8 		addiu   sp,sp,-40
0x00000048:	AF BF 00 24 		sw      ra,36(sp)
0x0000004C:	AF BE 00 20 		sw      fp,32(sp)
0x00000050:	AF B0 00 1C 		sw      s0,28(sp)
0x00000054:	03 A0 F0 21 		addu    fp,sp,zero
0x00000058:	AF C4 00 28 		sw      a0,40(fp)
0x0000005C:	8F C2 00 28 		lw      v0,40(fp)
0x00000060:	00 20 08 25 		or      at,at,zero
0x00000064:	14 40 00 04 		bne     v0,zero,16
0x00000068:	00 20 08 25 		or      at,at,zero
0x0000006C:	00 00 10 21 		addu    v0,zero,zero
0x00000070:	08 00 00 33 		j       0x000000CC
0x000000CC:	03 C0 E8 21 		addu    sp,fp,zero
0x000000D0:	8F BF 00 24 		lw      ra,36(sp)
0x000000D4:	8F BE 00 20 		lw      fp,32(sp)
0x000000D8:	8F B0 00 1C 		lw      s0,28(sp)
0x000000DC:	27 BD 00 28 		addiu   sp,sp,40
0x000000E0:	03 E0 00 08 		jr      ra
0x000000C4:	00 20 08 25 		or      at,at,zero
0x000000C8:	02 02 10 21 		addu    v0,s0,v0
0x000000CC:	03 C0 E8 21 		addu    sp,fp,zero
0x000000D0:	8F BF 00 24 		lw      ra,36(sp)
0x000000D4:	8F BE 00 20 		lw      fp,32(sp)
0x000000D8:	8F B0 00 1C 		lw      s0,28(sp)
0x000000DC:	27 BD 00 28 		addiu   sp,sp,40
0x000000E0:	03 E0 00 08 		jr      ra
0x000000A8:	00 20 08 25 		or      at,at,zero
0x000000AC:	00 40 80 21 		addu    s0,v0,zero
0x000000B0:	8F C2 00 28 		lw      v0,40(fp)
0x000000B4:	00 20 08 25 		or      at,at,zero
0x000000B8:	24 42 FF FE 		addiu   v0,v0,-2
0x000000BC:	00 40 20 21 		addu    a0,v0,zero
0x000000C0:	0C 00 00 11 		jal     0x00000044
0x00000044:	27 BD FF D8 		addiu   sp,sp,-40
0x00000048:	AF BF 00 24 		sw      ra,36(sp)
0x0000004C:	AF BE 00 20 		sw      fp,32(sp)
0x00000050:	AF B0 00 1C 		sw      s0,28(sp)
0x00000054:	03 A0 F0 21 		addu    fp,sp,zero
0x00000058:	AF C4 00 28 		sw      a0,40(fp)
0x0000005C:	8F C2 00 28 		lw      v0,40(fp)
0x00000060:	00 20 08 25 		or      at,at,zero
0x00000064:	14 40 00 04 		bne     v0,zero,16
0x00000078:	8F C3 00 28 		lw      v1,40(fp)
0x0000007C:	24 02 00 01 		addiu   v0,zero,1
0x00000080:	14 62 00 04 		bne     v1,v0,16
0x00000084:	00 20 08 25 		or      at,at,zero
0x00000088:	24 02 00 01 		addiu   v0,zero,1
0x0000008C:	08 00 00 33 		j       0x000000CC
0x000000CC:	03 C0 E8 21 		addu    sp,fp,zero
0x000000D0:	8F BF 00 24 		lw      ra,36(sp)
0x000000D4:	8F BE 00 20 		lw      fp,32(sp)
0x000000D8:	8F B0 00 1C 		lw      s0,28(sp)
0x000000DC:	27 BD 00 28 		addiu   sp,sp,40
0x000000E0:	03 E0 00 08 		jr      ra
0x000000C4:	00 20 08 25 		or      at,at,zero
0x000000C8:	02 02 10 21 		addu    v0,s0,v0
0x000000CC:	03 C0 E8 21 		addu    sp,fp,zero
0x000000D0:	8F BF 00 24 		lw      ra,36(sp)
0x000000D4:	8F BE 00 20 		lw      fp,32(sp)
0x000000D8:	8F B0 00 1C 		lw      s0,28(sp)
0x000000DC:	27 BD 00 28 		addiu   sp,sp,40
0x000000E0:	03 E0 00 08 		jr      ra
0x000000C4:	00 20 08 25 		or      at,at,zero
0x000000C8:	02 02 10 21 		addu    v0,s0,v0
0x000000CC:	03 C0 E8 21 		addu    sp,fp,zero
0x000000D0:	8F BF 00 24 		lw      ra,36(sp)
0x000000D4:	8F BE 00 20 		lw      fp,32(sp)
0x000000D8:	8F B0 00 1C 		lw      s0,28(sp)
0x000000DC:	27 BD 00 28 		addiu   sp,sp,40
0x000000E0:	03 E0 00 08 		jr      ra
0x000000A8:	00 20 08 25 		or      at,at,zero
0x000000AC:	00 40 80 21 		addu    s0,v0,zero
0x000000B0:	8F C2 00 28 		lw      v0,40(fp)
0x000000B4:	00 20 08 25 		or      at,at,zero
0x000000B8:	24 42 FF FE 		addiu   v0,v0,-2
0x000000BC:	00 40 20 21 		addu    a0,v0,zero
0x000000C0:	0C 00 00 11 		jal     0x00000044
0x00000044:	27 BD FF D8 		addiu   sp,sp,-40
0x00000048:	AF BF 00 24 		sw      ra,36(sp)
0x0000004C:	AF BE 00 20 		sw      fp,32(sp)
0x00000050:	AF B0 00 1C 		sw      s0,28(sp)
0x00000054:	03 A0 F0 21 		addu    fp,sp,zero
0x00000058:	AF C4 00 28 		sw      a0,40(fp)
0x0000005C:	8F C2 00 28 		lw      v0,40(fp)
0x00000060:	00 20 08 25 		or      at,at,zero
0x00000064:	14 40 00 04 		bne     v0,zero,16
0x00000078:	8F C3 00 28 		lw      v1,40(fp)
0x0000007C:	24 02 00 01 		addiu   v0,zero,1
0x00000080:	14 62 00 04 		bne     v1,v0,16
0x00000094:	8F C2 00 28 		lw      v0,40(fp)
0x00000098:	00 20 08 25 		or      at,at,zero
0x0000009C:	24 42 FF FF 		addiu   v0,v0,-1
0x000000A0:	00 40 20 21 		addu    a0,v0,zero
0x000000A4:	0C 00 00 11 		jal     0x00000044
0x00000044:	27 BD FF D8 		addiu   sp,sp,-40
0x00000048:	AF BF 00 24 		sw      ra,36(sp)
0x0000004C:	AF BE 00 20 		sw      fp,32(sp)
0x00000050:	AF B0 00 1C 		sw      s0,28(sp)
0x00000054:	03 A0 F0 21 		addu    fp,sp,zero
0x00000058:	AF C4 00 28 		sw      a0,40(fp)
0x0000005C:	8F C2 00 28 		lw      v0,40(fp)
0x00000060:	00 20 08 25 		or      at,at,zero
0x00000064:	14 40 00 04 		bne     v0,zero,16
0x00000078:	8F C3 00 28 		lw      v1,40(fp)
0x0000007C:	24 02 00 01 		addiu   v0,zero,1
0x00000080:	14 62 00 04 		bne     v1,v0,16
0x00000094:	8F C2 00 28 		lw      v0,40(fp)
0x00000098:	00 20 08 25 		or      at,at,zero
0x0000009C:	24 42 FF FF 		addiu   v0,v0,-1
0x000000A0:	00 40 20 21 		addu    a0,v0,zero
0x000000A4:	0C 00 00 11 		jal     0x00000044
0x00000044:	27 BD FF D8 		addiu   sp,sp,-40
0x00000048:	AF BF 00 24 		sw      ra,36(sp)
0x0000004C:	AF BE 00 20 		sw      fp,32(sp)
0x00000050:	AF B0 00 1C 		sw      s0,28(sp)
0x00000054:	03 A0 F0 21 		addu    fp,sp,zero
0x00000058:	AF C4 00 28 		sw      a0,40(fp)
0x0000005C:	8F C2 00 28 		lw      v0,40(fp)
0x00000060:	00 20 08 25 		or      at,at,zero
0x00000064:	14 40 00 04 		bne     v0,zero,16
0x00000078:	8F C3 00 28 		lw      v1,40(fp)
0x0000007C:	24 02 00 01 		addiu   v0,zero,1
0x00000080:	14 62 00 04 		bne     v1,v0,16
0x00000094:	8F C2 00 28 		lw      v0,40(fp)
0x00000098:	00 20 08 25 		or      at,at,zero
0x0000009C:	24 42 FF FF 		addiu   v0,v0,-1
0x000000A0:	00 40 20 21 		addu    a0,v0,zero
0x000000A4:	0C 00 00 11 		jal     0x00000044
0x00000044:	27 BD FF D8 		addiu   sp,sp,-40
0x00000048:	AF BF 00 24 		sw      ra,36(sp)
0x0000004C:	AF BE 00 20 		sw      fp,32(sp)
0x00000050:	AF B0 00 1C 		sw      s0,28(sp)
0x00000054:	03 A0 F0 21 		addu    fp,sp,zero
0x00000058:	AF C4 00 28 		sw      a0,40(fp)
0x0000005C:	8F C2 00 28 		lw      v0,40(fp)
0x00000060:	00 20 08 25 		or      at,at,zero
0x00000064:	14 40 00 04 		bne     v0,zero,16
0x00000078:	8F C3 00 28 		lw      v1,40(fp)
0x0000007C:	24 02 00 01 		addiu   v0,zero,1
0x00000080:	14 62 00 04 		bne     v1,v0,16
0x00000084:	00 20 08 25 		or      at,at,zero
0x00000088:	24 02 00 01 		addiu   v0,zero,1
0x0000008C:	08 00 00 33 		j       0x000000CC
0x000000CC:	03 C0 E8 21 		addu    sp,fp,zero
0x000000D0:	8F BF 00 24 		lw      ra,36(sp)
0x000000D4:	8F BE 00 20 		lw      fp,32(sp)
0x000000D8:	8F B0 00 1C 		lw      s0,28(sp)
0x000000DC:	27 BD 00 28 		addiu   sp,sp,40
0x000000E0:	03 E0 00 08 		jr      ra
0x000000A8:	00 20 08 25 		or      at,at,zero
0x000000AC:	00 40 80 21 		addu    s0,v0,zero
0x000000B0:	8F C2 00 28 		lw      v0,40(fp)
0x000000B4:	00 20 08 25 		or      at,at,zero
0x000000B8:	24 42 FF FE 		addiu   v0,v0,-2
0x000000BC:	00 40 20 21 		addu    a0,v0,zero
0x000000C0:	0C 00 00 11 		jal     0x00000044
0x00000044:	27 BD FF D8 		addiu   sp,sp,-40
0x00000048:	AF BF 00 24 		sw      ra,36(sp)
0x0000004C:	AF BE 00 20 		sw      fp,32(sp)
0x00000050:	AF B0 00 1C 		sw      s0,28(sp)
0x00000054:	03 A0 F0 21 		addu    fp,sp,zero
0x00000058:	AF C4 00 28 		sw      a0,40(fp)
0x0000005C:	8F C2 00 28 		lw      v0,40(fp)
0x00000060:	00 20 08 25 		or      at,at,zero
0x00000064:	14 40 00 04 		bne     v0,zero,16
0x00000068:	00 20 08 25 		or      at,at,zero
0x0000006C:	00 00 10 21 		addu    v0,zero,zero
0x00000070:	08 00 00 33 		j       0x000000CC
0x000000CC:	03 C0 E8 21 		addu    sp,fp,zero
0x000000D0:	8F BF 00 24 		lw      ra,36(sp)
0x000000D4:	8F BE 00 20 		lw      fp,32(sp)
0x000000D8:	8F B0 00 1C 		lw      s0,28(sp)
0x000000DC:	27 BD 00 28 		addiu   sp,sp,40
0x000000E0:	03 E0 00 08 		jr      ra
0x000000C4:	00 20 08 25 		or      at,at,zero
0x000000C8:	02 02 10 21 		addu    v0,s0,v0
0x000000CC:	03 C0 E8 21 		addu    sp,fp,zero
0x000000D0:	8F BF 00 24 		lw      ra,36(sp)
0x000000D4:	8F BE 00 20 		lw      fp,32(sp)
0x000000D8:	8F B0 00 1C 		lw      s0,28(sp)
0x000000DC:	27 BD 00 28 		addiu   sp,sp,40
0x000000E0:	03 E0 00 08 		jr      ra
0x000000A8:	00 20 08 25 		or      at,at,zero
0x000000AC:	00 40 80 21 		addu    s0,v0,zero
0x000000B0:	8F C2 00 28 		lw      v0,40(fp)
0x000000B4:	00 20 08 25 		or      at,at,zero
0x000000B8:	24 42 FF FE 		addiu   v0,v0,-2
0x000000BC:	00 40 20 21 		addu    a0,v0,zero
0x000000C0:	0C 00 00 11 		jal     0x00000044
0x00000044:	27 BD FF D8 		addiu   sp,sp,-40
0x00000048:	AF BF 00 24 		sw      ra,36(sp)
0x0000004C:	AF BE 00 20 		sw      fp,32(sp)
0x00000050:	AF B0 00 1C 		sw      s0,28(sp)
0x00000054:	03 A0 F0 21 		addu    fp,sp,zero
0x00000058:	AF C4 00 28 		sw      a0,40(fp)
0x0000005C:	8F C2 00 28 		lw      v0,40(fp)
0x00000060:	00 20 08 25 		or      at,at,zero
0x00000064:	14 40 00 04 		bne     v0,zero,16
0x00000078:	8F C3 00 28 		lw      v1,40(fp)
0x0000007C:	24 02 00 01 		addiu   v0,zero,1
0x00000080:	14 62 00 04 		bne     v1,v0,16
0x00000084:	00 20 08 25 		or      at,at,zero
0x00000088:	24 02 00 01 		addiu   v0,zero,1
0x0000008C:	08 00 00 33 		j       0x000000CC
0x000000CC:	03 C0 E8 21 		addu    sp,fp,zero
0x000000D0:	8F BF 00 24 		lw      ra,36(sp)
0x000000D4:	8F BE 00 20 		lw      fp,32(sp)
0x000000D8:	8F B0 00 1C 		lw      s0,28(sp)
0x000000DC:	27 BD 00 28 		addiu   sp,sp,40
0x000000E0:	03 E0 00 08 		jr      ra
0x000000C4:	00 20 08 25 		or      at,at,zero
0x000000C8:	02 02 10 21 		addu    v0,s0,v0
0x000000CC:	03 C0 E8 21 		addu    sp,fp,zero
0x000000D0:	8F BF 00 24 		lw      ra,36(sp)
0x000000D4:	8F BE 00 20 		lw      fp,32(sp)
0x000000D8:	8F B0 00 1C 		lw      s0,28(sp)
0x000000DC:	27 BD 00 28 		addiu   sp,sp,40
0x000000E0:	03 E0 00 08 		jr      ra
0x000000A8:	00 20 08 25 		or      at,at,zero
0x000000AC:	00 40 80 21 		addu    s0,v0,zero
0x000000B0:	8F C2 00 28 		lw      v0,40(fp)
0x000000B4:	00 20 08 25 		or      at,at,zero
0x000000B8:	24 42 FF FE 		addiu   v0,v0,-2
0x000000BC:	00 40 20 21 		addu    a0,v0,zero
0x000000C0:	0C 00 00 11 		jal     0x00000044
0x00000044:	27 BD FF D8 		addiu   sp,sp,-40
0x00000048:	AF BF 00 24 		sw      ra,36(sp)
0x0000004C:	AF BE 00 20 		sw      fp,32(sp)
0x00000050:	AF B0 00 1C 		sw      s0,28(sp)
0x00000054:	03 A0 F0 21 		addu    fp,sp,zero
0x00000058:	AF C4 00 28 		sw      a0,40(fp)
0x0000005C:	8F C2 00 28 		lw      v0,40(fp)
0x00000060:	00 20 08 25 		or      at,at,zero
0x00000064:	14 40 00 04 		bne     v0,zero,16
0x00000078:	8F C3 00 28 		lw      v1,40(fp)
0x0000007C:	24 02 00 01 		addiu   v0,zero,1
0x00000080:	14 62 00 04 		bne     v1,v0,16
0x00000094:	8F C2 00 28 		lw      v0,40(fp)
0x00000098:	00 20 08 25 		or      at,at,zero
0x0000009C:	24 42 FF FF 		addiu   v0,v0,-1
0x000000A0:	00 40 20 21 		addu    a0,v0,zero
0x000000A4:	0C 00 00 11 		jal     0x00000044
0x00000044:	27 BD FF D8 		addiu   sp,sp,-40
0x00000048:	AF BF 00 24 		sw      ra,36(sp)
0x0000004C:	AF BE 00 20 		sw      fp,32(sp)
0x00000050:	AF B0 00 1C 		sw      s0,28(sp)
0x00000054:	03 A0 F0 21 		addu    fp,sp,zero
0x00000058:	AF C4 00 28 		sw      a0,40(fp)
0x0000005C:	8F C2 00 28 		lw      v0,40(fp)
0x00000060:	00 20 08 25 		or      at,at,zero
0x00000064:	14 40 00 04 		bne     v0,zero,16
0x00000078:	8F C3 00 28 		lw      v1,40(fp)
0x0000007C:	24 02 00 01 		addiu   v0,zero,1
0x00000080:	14 62 00 04 		bne     v1,v0,16
0x00000084:	00 20 08 25 		or      at,at,zero
0x00000088:	24 02 00 01 		addiu   v0,zero,1
0x0000008C:	08 00 00 33 		j       0x000000CC
0x000000CC:	03 C0 E8 21 		addu    sp,fp,zero
0x000000D0:	8F BF 00 24 		lw      ra,36(sp)
0x000000D4:	8F BE 00 20 		lw      fp,32(sp)
0x000000D8:	8F B0 00 1C 		lw      s0,28(sp)
0x000000DC:	27 BD 00 28 		addiu   sp,sp,40
0x000000E0:	03 E0 00 08 		jr      ra
0x000000A8:	00 20 08 25 		or      at,at,zero
0x000000AC:	00 40 80 21 		addu    s0,v0,zero
0x000000B0:	8F C2 00 28 		lw      v0,40(fp)
0x000000B4:	00 20 08 25 		or      at,at,zero
0x000000B8:	24 42 FF FE 		addiu   v0,v0,-2
0x000000BC:	00 40 20 21 		addu    a0,v0,zero
0x000000C0:	0C 00 00 11 		jal     0x00000044
0x00000044:	27 BD FF D8 		addiu   sp,sp,-40
0x00000048:	AF BF 00 24 		sw      ra,36(sp)
0x0000004C:	AF BE 00 20 		sw      fp,32(sp)
0x00000050:	AF B0 00 1C 		sw      s0,28(sp)
0x00000054:	03 A0 F0 21 		addu    fp,sp,zero
0x00000058:	AF C4 00 28 		sw      a0,40(fp)
0x0000005C:	8F C2 00 28 		lw      v0,40(fp)
0x00000060:	00 20 08 25 		or      at,at,zero
0x00000064:	14 40 00 04 		bne     v0,zero,16
0x00000068:	00 20 08 25 		or      at,at,zero
0x0000006C:	00 00 10 21 		addu    v0,zero,zero
0x00000070:	08 00 00 33 		j       0x000000CC
0x000000CC:	03 C0 E8 21 		addu    sp,fp,zero
0x000000D0:	8F BF 00 24 		lw      ra,36(sp)
0x000000D4:	8F BE 00 20 		lw      fp,32(sp)
0x000000D8:	8F B0 00 1C 		lw      s0,28(sp)
0x000000DC:	27 BD 00 28 		addiu   sp,sp,40
0x000000E0:	03 E0 00 08 		jr      ra
0x000000C4:	00 20 08 25 		or      at,at,zero
0x000000C8:	02 02 10 21 		addu    v0,s0,v0
0x000000CC:	03 C0 E8 21 		addu    sp,fp,zero
0x000000D0:	8F BF 00 24 		lw      ra,36(sp)
0x000000D4:	8F BE 00 20 		lw      fp,32(sp)
0x000000D8:	8F B0 00 1C 		lw      s0,28(sp)
0x000000DC:	27 BD 00 28 		addiu   sp,sp,40
0x000000E0:	03 E0 00 08 		jr      ra
0x000000C4:	00 20 08 25 		or      at,at,zero
0x000000C8:	02 02 10 21 		addu    v0,s0,v0
0x000000CC:	03 C0 E8 21 		addu    sp,fp,zero
0x000000D0:	8F BF 00 24 		lw      ra,36(sp)
0x000000D4:	8F BE 00 20 		lw      fp,32(sp)
0x000000D8:	8F B0 00 1C 		lw      s0,28(sp)
0x000000DC:	27 BD 00 28 		addiu   sp,sp,40
0x000000E0:	03 E0 00 08 		jr      ra
0x000000C4:	00 20 08 25 		or      at,at,zero
0x000000C8:	02 02 10 21 		addu    v0,s0,v0
0x000000CC:	03 C0 E8 21 		addu    sp,fp,zero
0x000000D0:	8F BF 00 24 		lw      ra,36(sp)
0x000000D4:	8F BE 00 20 		lw      fp,32(sp)
0x000000D8:	8F B0 00 1C 		lw      s0,28(sp)
0x000000DC:	27 BD 00 28 		addiu   sp,sp,40
0x000000E0:	03 E0 00 08 		jr      ra
0x000000A8:	00 20 08 25 		or      at,at,zero
0x000000AC:	00 40 80 21 		addu    s0,v0,zero
0x000000B0:	8F C2 00 28 		lw      v0,40(fp)
0x000000B4:	00 20 08 25 		or      at,at,zero
0x000000B8:	24 42 FF FE 		addiu   v0,v0,-2
0x000000BC:	00 40 20 21 		addu    a0,v0,zero
0x000000C0:	0C 00 00 11 		jal     0x00000044
0x00000044:	27 BD FF D8 		addiu   sp,sp,-40
0x00000048:	AF BF 00 24 		sw      ra,36(sp)
0x0000004C:	AF BE 00 20 		sw      fp,32(sp)
0x00000050:	AF B0 00 1C 		sw      s0,28(sp)
0x00000054:	03 A0 F0 21 		addu    fp,sp,zero
0x00000058:	AF C4 00 28 		sw      a0,40(fp)
0x0000005C:	8F C2 00 28 		lw      v0,40(fp)
0x00000060:	00 20 08 25 		or      at,at,zero
0x00000064:	14 40 00 04 		bne     v0,zero,16
0x00000078:	8F C3 00 28 		lw      v1,40(fp)
0x0000007C:	24 02 00 01 		addiu   v0,zero,1
0x00000080:	14 62 00 04 		bne     v1,v0,16
0x00000094:	8F C2 00 28 		lw      v0,40(fp)
0x00000098:	00 20 08 25 		or      at,at,zero
0x0000009C:	24 42 FF FF 		addiu   v0,v0,-1
0x000000A0:	00 40 20 21 		addu    a0,v0,zero
0x000000A4:	0C 00 00 11 		jal     0x00000044
0x00000044:	27 BD FF D8 		addiu   sp,sp,-40
0x00000048:	AF BF 00 24 		sw      ra,36(sp)
0x0000004C:	AF BE 00 20 		sw      fp,32(sp)
0x00000050:	AF B0 00 1C 		sw      s0,28(sp)
0x00000054:	03 A0 F0 21 		addu    fp,sp,zero
0x00000058:	AF C4 00 28 		sw      a0,40(fp)
0x0000005C:	8F C2 00 28 		lw      v0,40(fp)
0x00000060:	00 20 08 25 		or      at,at,zero
0x00000064:	14 40 00 04 		bne     v0,zero,16
0x00000078:	8F C3 00 28 		lw      v1,40(fp)
0x0000007C:	24 02 00 01 		addiu   v0,zero,1
0x00000080:	14 62 00 04 		bne     v1,v0,16
0x00000094:	8F C2 00 28 		lw      v0,40(fp)
0x00000098:	00 20 08 25 		or      at,at,zero
0x0000009C:	24 42 FF FF 		addiu   v0,v0,-1
0x000000A0:	00 40 20 21 		addu    a0,v0,zero
0x000000A4:	0C 00 00 11 		jal     0x00000044
0x00000044:	27 BD FF D8 		addiu   sp,sp,-40
0x00000048:	AF BF 00 24 		sw      ra,36(sp)
0x0000004C:	AF BE 00 20 		sw      fp,32(sp)
0x00000050:	AF B0 00 1C 		sw      s0,28(sp)
0x00000054:	03 A0 F0 21 		addu    fp,sp,zero
0x00000058:	AF C4 00 28 		sw      a0,40(fp)
0x0000005C:	8F C2 00 28 		lw      v0,40(fp)
0x00000060:	00 20 08 25 		or      at,at,zero
0x00000064:	14 40 00 04 		bne     v0,zero,16
0x00000078:	8F C3 00 28 		lw      v1,40(fp)
0x0000007C:	24 02 00 01 		addiu   v0,zero,1
0x00000080:	14 62 00 04 		bne     v1,v0,16
0x00000094:	8F C2 00 28 		lw      v0,40(fp)
0x00000098:	00 20 08 25 		or      at,at,zero
0x0000009C:	24 42 FF FF 		addiu   v0,v0,-1
0x000000A0:	00 40 20 21 		addu    a0,v0,zero
0x000000A4:	0C 00 00 11 		jal     0x00000044
0x00000044:	27 BD FF D8 		addiu   sp,sp,-40
0x00000048:	AF BF 00 24 		sw      ra,36(sp)
0x0000004C:	AF BE 00 20 		sw      fp,32(sp)
0x00000050:	AF B0 00 1C 		sw      s0,28(sp)
0x00000054:	03 A0 F0 21 		addu    fp,sp,zero
0x00000058:	AF C4 00 28 		sw      a0,40(fp)
0x0000005C:	8F C2 00 28 		lw      v0,40(fp)
0x00000060:	00 20 08 25 		or      at,at,zero
0x00000064:	14 40 00 04 		bne     v0,zero,16
0x00000078:	8F C3 00 28 		lw      v1,40(fp)
0x0000007C:	24 02 00 01 		addiu   v0,zero,1
0x00000080:	14 62 00 04 		bne     v1,v0,16
0x00000094:	8F C2 00 28 		lw      v0,40(fp)
0x00000098:	00 20 08 25 		or      at,at,zero
0x0000009C:	24 42 FF FF 		addiu   v0,v0,-1
0x000000A0:	00 40 20 21 		addu    a0,v0,zero
0x000000A4:	0C 00 00 11 		jal     0x00000044
0x00000044:	27 BD FF D8 		addiu   sp,sp,-40
0x00000048:	AF BF 00 24 		sw      ra,36(sp)
0x0000004C:	AF BE 00 20 		sw      fp,32(sp)
0x00000050:	AF B0 00 1C 		sw      s0,28(sp)
0x00000054:	03 A0 F0 21 		addu    fp,sp,zero
0x00000058:	AF C4 00 28 		sw      a0,40(fp)
0x0000005C:	8F C2 00 28 		lw      v0,40(fp)
0x00000060:	00 20 08 25 		or      at,at,zero
0x00000064:	14 40 00 04 		bne     v0,zero,16
0x00000078:	8F C3 00 28 		lw      v1,40(fp)
0x0000007C:	24 02 00 01 		addiu   v0,zero,1
0x00000080:	14 62 00 04 		bne     v1,v0,16
0x00000084:	00 20 08 25 		or      at,at,zero
0x00000088:	24 02 00 01 		addiu   v0,zero,1
0x0000008C:	08 00 00 33 		j       0x000000CC
0x000000CC:	03 C0 E8 21 		addu    sp,fp,zero
0x000000D0:	8F BF 00 24 		lw      ra,36(sp)
0x000000D4:	8F BE 00 20 		lw      fp,32(sp)
0x000000D8:	8F B0 00 1C 		lw      s0,28(sp)
0x000000DC:	27 BD 00 28 		addiu   sp,sp,40
0x000000E0:	03 E0 00 08 		jr      ra
0x000000A8:	00 20 08 25 		or      at,at,zero
0x000000AC:	00 40 80 21 		addu    s0,v0,zero
0x000000B0:	8F C2 00 28 		lw      v0,40(fp)
0x000000B4:	00 20 08 25 		or      at,at,zero
0x000000B8:	24 42 FF FE 		addiu   v0,v0,-2
0x000000BC:	00 40 20 21 		addu    a0,v0,zero
0x000000C0:	0C 00 00 11 		jal     0x00000044
0x00000044:	27 BD FF D8 		addiu   sp,sp,-40
0x00000048:	AF BF 00 24 		sw      ra,36(sp)
0x0000004C:	AF BE 00 20 		sw      fp,32(sp)
0x00000050:	AF B0 00 1C 		sw      s0,28(sp)
0x00000054:	03 A0 F0 21 		addu    fp,sp,zero
0x00000058:	AF C4 00 28 		sw      a0,40(fp)
0x0000005C:	8F C2 00 28 		lw      v0,40(fp)
0x00000060:	00 20 08 25 		or      at,at,zero
0x00000064:	14 40 00 04 		bne     v0,zero,16
0x00000068:	00 20 08 25 		or      at,at,zero
0x0000006C:	00 00 10 21 		addu    v0,zero,zero
0x00000070:	08 00 00 33 		j       0x000000CC
0x000000CC:	03 C0 E8 21 		addu    sp,fp,zero
0x000000D0:	8F BF 00 24 		lw      ra,36(sp)
0x000000D4:	8F BE 00 20 		lw      fp,32(sp)
0x000000D8:	8F B0 00 1C 		lw      s0,28(sp)
0x000000DC:	27 BD 00 28 		addiu   sp,sp,40
0x000000E0:	03 E0 00 08 		jr      ra
0x000000C4:	00 20 08 25 		or      at,at,zero
0x000000C8:	02 02 10 21 		addu    v0,s0,v0
0x000000CC:	03 C0 E8 21 		addu    sp,fp,zero
0x000000D0:	8F BF 00 24 		lw      ra,36(sp)
0x000000D4:	8F BE 00 20 		lw      fp,32(sp)
0x000000D8:	8F B0 00 1C 		lw      s0,28(sp)
0x000000DC:	27 BD 00 28 		addiu   sp,sp,40
0x000000E0:	03 E0 00 08 		jr      ra
0x000000A8:	00 20 08 25 		or      at,at,zero
0x000000AC:	00 40 80 21 		addu    s0,v0,zero
0x000000B0:	8F C2 00 28 		lw      v0,40(fp)
0x000000B4:	00 20 08 25 		or      at,at,zero
0x000000B8:	24 42 FF FE 		addiu   v0,v0,-2
0x000000BC:	00 40 20 21 		addu    a0,v0,zero
0x000000C0:	0C 00 00 11 		jal     0x00000044
0x00000044:	27 BD FF D8 		addiu   sp,sp,-40
0x00000048:	AF BF 00 24 		sw      ra,36(sp)
0x0000004C:	AF BE 00 20 		sw      fp,32(sp)
0x00000050:	AF B0 00 1C 		sw      s0,28(sp)
0x00000054:	03 A0 F0 21 		addu    fp,sp,zero
0x00000058:	AF C4 00 28 		sw      a0,40(fp)
0x0000005C:	8F C2 00 28 		lw      v0,40(fp)
0x00000060:	00 20 08 25 		or      at,at,zero
0x00000064:	14 40 00 04 		bne     v0,zero,16
0x00000078:	8F C3 00 28 		lw      v1,40(fp)
0x0000007C:	24 02 00 01 		addiu   v0,zero,1
0x00000080:	14 62 00 04 		bne     v1,v0,16
0x00000084:	00 20 08 25 		or      at,at,zero
0x00000088:	24 02 00 01 		addiu   v0,zero,1
0x0000008C:	08 00 00 33 		j       0x000000CC
0x000000CC:	03 C0 E8 21 		addu    sp,fp,zero
0x000000D0:	8F BF 00 24 		lw      ra,36(sp)
0x000000D4:	8F BE 00 20 		lw      fp,32(sp)
0x000000D8:	8F B0 00 1C 		lw      s0,28(sp)
0x000000DC:	27 BD 00 28 		addiu   sp,sp,40
0x000000E0:	03 E0 00 08 		jr      ra
0x000000C4:	00 20 08 25 		or      at,at,zero
0x000000C8:	02 02 10 21 		addu    v0,s0,v0
0x000000CC:	03 C0 E8 21 		addu    sp,fp,zero
0x000000D0:	8F BF 00 24 		lw      ra,36(sp)
0x000000D4:	8F BE 00 20 		lw      fp,32(sp)
0x000000D8:	8F B0 00 1C 		lw      s0,28(sp)
0x000000DC:	27 BD 00 28 		addiu   sp,sp,40
0x000000E0:	03 E0 00 08 		jr      ra
0x000000A8:	00 20 08 25 		or      at,at,zero
0x000000AC:	00 40 80 21 		addu    s0,v0,zero
0x000000B0:	8F C2 00 28 		lw      v0,40(fp)
0x000000B4:	00 20 08 25 		or      at,at,zero
0x000000B8:	24 42 FF FE 		addiu   v0,v0,-2
0x000000BC:	00 40 20 21 		addu    a0,v0,zero
0x000000C0:	0C 00 00 11 		jal     0x00000044
0x00000044:	27 BD FF D8 		addiu   sp,sp,-40
0x00000048:	AF BF 00 24 		sw      ra,36(sp)
0x0000004C:	AF BE 00 20 		sw      fp,32(sp)
0x00000050:	AF B0 00 1C 		sw      s0,28(sp)
0x00000054:	03 A0 F0 21 		addu    fp,sp,zero
0x00000058:	AF C4 00 28 		sw      a0,40(fp)
0x0000005C:	8F C2 00 28 		lw      v0,40(fp)
0x00000060:	00 20 08 25 		or      at,at,zero
0x00000064:	14 40 00 04 		bne     v0,zero,16
0x00000078:	8F C3 00 28 		lw      v1,40(fp)
0x0000007C:	24 02 00 01 		addiu   v0,zero,1
0x00000080:	14 62 00 04 		bne     v1,v0,16
0x00000094:	8F C2 00 28 		lw      v0,40(fp)
0x00000098:	00 20 08 25 		or      at,at,zero
0x0000009C:	24 42 FF FF 		addiu   v0,v0,-1
0x000000A0:	00 40 20 21 		addu    a0,v0,zero
0x000000A4:	0C 00 00 11 		jal     0x00000044
0x00000044:	27 BD FF D8 		addiu   sp,sp,-40
0x00000048:	AF BF 00 24 		sw      ra,36(sp)
0x0000004C:	AF BE 00 20 		sw      fp,32(sp)
0x00000050:	AF B0 00 1C 		sw      s0,28(sp)
0x00000054:	03 A0 F0 21 		addu    fp,sp,zero
0x00000058:	AF C4 00 28 		sw      a0,40(fp)
0x0000005C:	8F C2 00 28 		lw      v0,40(fp)
0x00000060:	00 20 08 25 		or      at,at,zero
0x00000064:	14 40 00 04 		bne     v0,zero,16
0x00000078:	8F C3 00 28 		lw      v1,40(fp)
0x0000007C:	24 02 00 01 		addiu   v0,zero,1
0x00000080:	14 62 00 04 		bne     v1,v0,16
0x00000084:	00 20 08 25 		or      at,at,zero
0x00000088:	24 02 00 01 		addiu   v0,zero,1
0x0000008C:	08 00 00 33 		j       0x000000CC
0x000000CC:	03 C0 E8 21 		addu    sp,fp,zero
0x000000D0:	8F BF 00 24 		lw      ra,36(sp)
0x000000D4:	8F BE 00 20 		lw      fp,32(sp)
0x000000D8:	8F B0 00 1C 		lw      s0,28(sp)
0x000000DC:	27 BD 00 28 		addiu   sp,sp,40
0x000000E0:	03 E0 00 08 		jr      ra
0x000000A8:	00 20 08 25 		or      at,at,zero
0x000000AC:	00 40 80 21 		addu    s0,v0,zero
0x000000B0:	8F C2 00 28 		lw      v0,40(fp)
0x000000B4:	00 20 08 25 		or      at,at,zero
0x000000B8:	24 42 FF FE 		addiu   v0,v0,-2
0x000000BC:	00 40 20 21 		addu    a0,v0,zero
0x000000C0:	0C 00 00 11 		jal     0x00000044
0x00000044:	27 BD FF D8 		addiu   sp,sp,-40
0x00000048:	AF BF 00 24 		sw      ra,36(sp)
0x0000004C:	AF BE 00 20 		sw      fp,32(sp)
0x00000050:	AF B0 00 1C 		sw      s0,28(sp)
0x00000054:	03 A0 F0 21 		addu    fp,sp,zero
0x00000058:	AF C4 00 28 		sw      a0,40(fp)
0x0000005C:	8F C2 00 28 		lw      v0,40(fp)
0x00000060:	00 20 08 25 		or      at,at,zero
0x00000064:	14 40 00 04 		bne     v0,zero,16
0x00000068:	00 20 08 25 		or      at,at,zero
0x0000006C:	00 00 10 21 		addu    v0,zero,zero
0x00000070:	08 00 00 33 		j       0x000000CC
0x000000CC:	03 C0 E8 21 		addu    sp,fp,zero
0x000000D0:	8F BF 00 24 		lw      ra,36(sp)
0x000000D4:	8F BE 00 20 		lw      fp,32(sp)
0x000000D8:	8F B0 00 1C 		lw      s0,28(sp)
0x000000DC:	27 BD 00 28 		addiu   sp,sp,40
0x000000E0:	03 E0 00 08 		jr      ra
0x000000C4:	00 20 08 25 		or      at,at,zero
0x000000C8:	02 02 10 21 		addu    v0,s0,v0
0x000000CC:	03 C0 E8 21 		addu    sp,fp,zero
0x000000D0:	8F BF 00 24 		lw      ra,36(sp)
0x000000D4:	8F BE 00 20 		lw      fp,32(sp)
0x000000D8:	8F B0 00 1C 		lw      s0,28(sp)
0x000000DC:	27 BD 00 28 		addiu   sp,sp,40
0x000000E0:	03 E0 00 08 		jr      ra
0x000000C4:	00 20 08 25 		or      at,at,zero
0x000000C8:	02 02 10 21 		addu    v0,s0,v0
0x000000CC:	03 C0 E8 21 		addu    sp,fp,zero
0x000000D0:	8F BF 00 24 		lw      ra,36(sp)
0x000000D4:	8F BE 00 20 		lw      fp,32(sp)
0x000000D8:	8F B0 00 1C 		lw      s0,28(sp)
0x000000DC:	27 BD 00 28 		addiu   sp,sp,40
0x000000E0:	03 E0 00 08 		jr      ra
0x000000A8:	00 20 08 25 		or      at,at,zero
0x000000AC:	00 40 80 21 		addu    s0,v0,zero
0x000000B0:	8F C2 00 28 		lw      v0,40(fp)
0x000000B4:	00 20 08 25 		or      at,at,zero
0x000000B8:	24 42 FF FE 		addiu   v0,v0,-2
0x000000BC:	00 40 20 21 		addu    a0,v0,zero
0x000000C0:	0C 00 00 11 		jal     0x00000044
0x00000044:	27 BD FF D8 		addiu   sp,sp,-40
0x00000048:	AF BF 00 24 		sw      ra,36(sp)
0x0000004C:	AF BE 00 20 		sw      fp,32(sp)
0x00000050:	AF B0 00 1C 		sw      s0,28(sp)
0x00000054:	03 A0 F0 21 		addu    fp,sp,zero
0x00000058:	AF C4 00 28 		sw      a0,40(fp)
0x0000005C:	8F C2 00 28 		lw      v0,40(fp)
0x00000060:	00 20 08 25 		or      at,at,zero
0x00000064:	14 40 00 04 		bne     v0,zero,16
0x00000078:	8F C3 00 28 		lw      v1,40(fp)
0x0000007C:	24 02 00 01 		addiu   v0,zero,1
0x00000080:	14 62 00 04 		bne     v1,v0,16
0x00000094:	8F C2 00 28 		lw      v0,40(fp)
0x00000098:	00 20 08 25 		or      at,at,zero
0x0000009C:	24 42 FF FF 		addiu   v0,v0,-1
0x000000A0:	00 40 20 21 		addu    a0,v0,zero
0x000000A4:	0C 00 00 11 		jal     0x00000044
0x00000044:	27 BD FF D8 		addiu   sp,sp,-40
0x00000048:	AF BF 00 24 		sw      ra,36(sp)
0x0000004C:	AF BE 00 20 		sw      fp,32(sp)
0x00000050:	AF B0 00 1C 		sw      s0,28(sp)
0x00000054:	03 A0 F0 21 		addu    fp,sp,zero
0x00000058:	AF C4 00 28 		sw      a0,40(fp)
0x0000005C:	8F C2 00 28 		lw      v0,40(fp)
0x00000060:	00 20 08 25 		or      at,at,zero
0x00000064:	14 40 00 04 		bne     v0,zero,16
0x00000078:	8F C3 00 28 		lw      v1,40(fp)
0x0000007C:	24 02 00 01 		addiu   v0,zero,1
0x00000080:	14 62 00 04 		bne     v1,v0,16
0x00000094:	8F C2 00 28 		lw      v0,40(fp)
0x00000098:	00 20 08 25 		or      at,at,zero
0x0000009C:	24 42 FF FF 		addiu   v0,v0,-1
0x000000A0:	00 40 20 21 		addu    a0,v0,zero
0x000000A4:	0C 00 00 11 		jal     0x00000044
0x00000044:	27 BD FF D8 		addiu   sp,sp,-40
0x00000048:	AF BF 00 24 		sw      ra,36(sp)
0x0000004C:	AF BE 00 20 		sw      fp,32(sp)
0x00000050:	AF B0 00 1C 		sw      s0,28(sp)
0x00000054:	03 A0 F0 21 		addu    fp,sp,zero
0x00000058:	AF C4 00 28 		sw      a0,40(fp)
0x0000005C:	8F C2 00 28 		lw      v0,40(fp)
0x00000060:	00 20 08 25 		or      at,at,zero
0x00000064:	14 40 00 04 		bne     v0,zero,16
0x00000078:	8F C3 00 28 		lw      v1,40(fp)
0x0000007C:	24 02 00 01 		addiu   v0,zero,1
0x00000080:	14 62 00 04 		bne     v1,v0,16
0x00000084:	00 20 08 25 		or      at,at,zero
0x00000088:	24 02 00 01 		addiu   v0,zero,1
0x0000008C:	08 00 00 33 		j       0x000000CC
0x000000CC:	03 C0 E8 21 		addu    sp,fp,zero
0x000000D0:	8F BF 00 24 		lw      ra,36(sp)
0x000000D4:	8F BE 00 20 		lw      fp,32(sp)
0x000000D8:	8F B0 00 1C 		lw      s0,28(sp)
0x000000DC:	27 BD 00 28 		addiu   sp,sp,40
0x000000E0:	03 E0 00 08 		jr      ra
0x000000A8:	00 20 08 25 		or      at,at,zero
0x000000AC:	00 40 80 21 		addu    s0,v0,zero
0x000000B0:	8F C2 00 28 		lw      v0,40(fp)
0x000000B4:	00 20 08 25 		or      at,at,zero
0x000000B8:	24 42 FF FE 		addiu   v0,v0,-2
0x000000BC:	00 40 20 21 		addu    a0,v0,zero
0x000000C0:	0C 00 00 11 		jal     0x00000044
0x00000044:	27 BD FF D8 		addiu   sp,sp,-40
0x00000048:	AF BF 00 24 		sw      ra,36(sp)
0x0000004C:	AF BE 00 20 		sw      fp,32(sp)
0x00000050:	AF B0 00 1C 		sw      s0,28(sp)
0x00000054:	03 A0 F0 21 		addu    fp,sp,zero
0x00000058:	AF C4 00 28 		sw      a0,40(fp)
0x0000005C:	8F C2 00 28 		lw      v0,40(fp)
0x00000060:	00 20 08 25 		or      at,at,zero
0x00000064:	14 40 00 04 		bne     v0,zero,16
0x00000068:	00 20 08 25 		or      at,at,zero
0x0000006C:	00 00 10 21 		addu    v0,zero,zero
0x00000070:	08 00 00 33 		j       0x000000CC
0x000000CC:	03 C0 E8 21 		addu    sp,fp,zero
0x000000D0:	8F BF 00 24 		lw      ra,36(sp)
0x000000D4:	8F BE 00 20 		lw      fp,32(sp)
0x000000D8:	8F B0 00 1C 		lw      s0,28(sp)
0x000000DC:	27 BD 00 28 		addiu   sp,sp,40
0x000000E0:	03 E0 00 08 		jr      ra
0x000000C4:	00 20 08 25 		or      at,at,zero
0x000000C8:	02 02 10 21 		addu    v0,s0,v0
0x000000CC:	03 C0 E8 21 		addu    sp,fp,zero
0x000000D0:	8F BF 00 24 		lw      ra,36(sp)
0x000000D4:	8F BE 00 20 		lw      fp,32(sp)
0x000000D8:	8F B0 00 1C 		lw      s0,28(sp)
0x000000DC:	27 BD 00 28 		addiu   sp,sp,40
0x000000E0:	03 E0 00 08 		jr      ra
0x000000A8:	00 20 08 25 		or      at,at,zero
0x000000AC:	00 40 80 21 		addu    s0,v0,zero
0x000000B0:	8F C2 00 28 		lw      v0,40(fp)
0x000000B4:	00 20 08 25 		or      at,at,zero
0x000000B8:	24 42 FF FE 		addiu   v0,v0,-2
0x000000BC:	00 40 20 21 		addu    a0,v0,zero
0x000000C0:	0C 00 00 11 		jal     0x00000044
0x00000044:	27 BD FF D8 		addiu   sp,sp,-40
0x00000048:	AF BF 00 24 		sw      ra,36(sp)
0x0000004C:	AF BE 00 20 		sw      fp,32(sp)
0x00000050:	AF B0 00 1C 		sw      s0,28(sp)
0x00000054:	03 A0 F0 21 		addu    fp,sp,zero
0x00000058:	AF C4 00 28 		sw      a0,40(fp)
0x0000005C:	8F C2 00 28 		lw      v0,40(fp)
0x00000060:	00 20 08 25 		or      at,at,zero
0x00000064:	14 40 00 04 		bne     v0,zero,16
0x00000078:	8F C3 00 28 		lw      v1,40(fp)
0x0000007C:	24 02 00 01 		addiu   v0,zero,1
0x00000080:	14 62 00 04 		bne     v1,v0,16
0x00000084:	00 20 08 25 		or      at,at,zero
0x00000088:	24 02 00 01 		addiu   v0,zero,1
0x0000008C:	08 00 00 33 		j       0x000000CC
0x000000CC:	03 C0 E8 21 		addu    sp,fp,zero
0x000000D0:	8F BF 00 24 		lw      ra,36(sp)
0x000000D4:	8F BE 00 20 		lw      fp,32(sp)
0x000000D8:	8F B0 00 1C 		lw      s0,28(sp)
0x000000DC:	27 BD 00 28 		addiu   sp,sp,40
0x000000E0:	03 E0 00 08 		jr      ra
0x000000C4:	00 20 08 25 		or      at,at,zero
0x000000C8:	02 02 10 21 		addu    v0,s0,v0
0x000000CC:	03 C0 E8 21 		addu    sp,fp,zero
0x000000D0:	8F BF 00 24 		lw      ra,36(sp)
0x000000D4:	8F BE 00 20 		lw      fp,32(sp)
0x000000D8:	8F B0 00 1C 		lw      s0,28(sp)
0x000000DC:	27 BD 00 28 		addiu   sp,sp,40
0x000000E0:	03 E0 00 08 		jr      ra
0x000000C4:	00 20 08 25 		or      at,at,zero
0x000000C8:	02 02 10 21 		addu    v0,s0,v0
0x000000CC:	03 C0 E8 21 		addu    sp,fp,zero
0x000000D0:	8F BF 00 24 		lw      ra,36(sp)
0x000000D4:	8F BE 00 20 		lw      fp,32(sp)
0x000000D8:	8F B0 00 1C 		lw      s0,28(sp)
0x000000DC:	27 BD 00 28 		addiu   sp,sp,40
0x000000E0:	03 E0 00 08 		jr      ra
0x000000C4:	00 20 08 25 		or      at,at,zero
0x000000C8:	02 02 10 21 		addu    v0,s0,v0
0x000000CC:	03 C0 E8 21 		addu    sp,fp,zero
0x000000D0:	8F BF 00 24 		lw      ra,36(sp)
0x000000D4:	8F BE 00 20 		lw      fp,32(sp)
0x000000D8:	8F B0 00 1C 		lw      s0,28(sp)
0x000000DC:	27 BD 00 28 		addiu   sp,sp,40
0x000000E0:	03 E0 00 08 		jr      ra
0x000000C4:	00 20 08 25 		or      at,at,zero
0x000000C8:	02 02 10 21 		addu    v0,s0,v0
0x000000CC:	03 C0 E8 21 		addu    sp,fp,zero
0x000000D0:	8F BF 00 24 		lw      ra,36(sp)
0x000000D4:	8F BE 00 20 		lw      fp,32(sp)
0x000000D8:	8F B0 00 1C 		lw      s0,28(sp)
0x000000DC:	27 BD 00 28 		addiu   sp,sp,40
0x000000E0:	03 E0 00 08 		jr      ra
0x000000A8:	00 20 08 25 		or      at,at,zero
0x000000AC:	00 40 80 21 		addu    s0,v0,zero
0x000000B0:	8F C2 00 28 		lw      v0,40(fp)
0x000000B4:	00 20 08 25 		or      at,at,zero
0x000000B8:	24 42 FF FE 		addiu   v0,v0,-2
0x000000BC:	00 40 20 21 		addu    a0,v0,zero
0x000000C0:	0C 00 00 11 		jal     0x00000044
0x00000044:	27 BD FF D8 		addiu   sp,sp,-40
0x00000048:	AF BF 00 24 		sw      ra,36(sp)
0x0000004C:	AF BE 00 20 		sw      fp,32(sp)
0x00000050:	AF B0 00 1C 		sw      s0,28(sp)
0x00000054:	03 A0 F0 21 		addu    fp,sp,zero
0x00000058:	AF C4 00 28 		sw      a0,40(fp)
0x0000005C:	8F C2 00 28 		lw      v0,40(fp)
0x00000060:	00 20 08 25 		or      at,at,zero
0x00000064:	14 40 00 04 		bne     v0,zero,16
0x00000078:	8F C3 00 28 		lw      v1,40(fp)
0x0000007C:	24 02 00 01 		addiu   v0,zero,1
0x00000080:	14 62 00 04 		bne     v1,v0,16
0x00000094:	8F C2 00 28 		lw      v0,40(fp)
0x00000098:	00 20 08 25 		or      at,at,zero
0x0000009C:	24 42 FF FF 		addiu   v0,v0,-1
0x000000A0:	00 40 20 21 		addu    a0,v0,zero
0x000000A4:	0C 00 00 11 		jal     0x00000044
0x00000044:	27 BD FF D8 		addiu   sp,sp,-40
0x00000048:	AF BF 00 24 		sw      ra,36(sp)
0x0000004C:	AF BE 00 20 		sw      fp,32(sp)
0x00000050:	AF B0 00 1C 		sw      s0,28(sp)
0x00000054:	03 A0 F0 21 		addu    fp,sp,zero
0x00000058:	AF C4 00 28 		sw      a0,40(fp)
0x0000005C:	8F C2 00 28 		lw      v0,40(fp)
0x00000060:	00 20 08 25 		or      at,at,zero
0x00000064:	14 40 00 04 		bne     v0,zero,16
0x00000078:	8F C3 00 28 		lw      v1,40(fp)
0x0000007C:	24 02 00 01 		addiu   v0,zero,1
0x00000080:	14 62 00 04 		bne     v1,v0,16
0x00000094:	8F C2 00 28 		lw      v0,40(fp)
0x00000098:	00 20 08 25 		or      at,at,zero
0x0000009C:	24 42 FF FF 		addiu   v0,v0,-1
0x000000A0:	00 40 20 21 		addu    a0,v0,zero
0x000000A4:	0C 00 00 11 		jal     0x00000044
0x00000044:	27 BD FF D8 		addiu   sp,sp,-40
0x00000048:	AF BF 00 24 		sw      ra,36(sp)
0x0000004C:	AF BE 00 20 		sw      fp,32(sp)
0x00000050:	AF B0 00 1C 		sw      s0,28(sp)
0x00000054:	03 A0 F0 21 		addu    fp,sp,zero
0x00000058:	AF C4 00 28 		sw      a0,40(fp)
0x0000005C:	8F C2 00 28 		lw      v0,40(fp)
0x00000060:	00 20 08 25 		or      at,at,zero
0x00000064:	14 40 00 04 		bne     v0,zero,16
0x00000078:	8F C3 00 28 		lw      v1,40(fp)
0x0000007C:	24 02 00 01 		addiu   v0,zero,1
0x00000080:	14 62 00 04 		bne     v1,v0,16
0x00000094:	8F C2 00 28 		lw      v0,40(fp)
0x00000098:	00 20 08 25 		or      at,at,zero
0x0000009C:	24 42 FF FF 		addiu   v0,v0,-1
0x000000A0:	00 40 20 21 		addu    a0,v0,zero
0x000000A4:	0C 00 00 11 		jal     0x00000044
0x00000044:	27 BD FF D8 		addiu   sp,sp,-40
0x00000048:	AF BF 00 24 		sw      ra,36(sp)
0x0000004C:	AF BE 00 20 		sw      fp,32(sp)
0x00000050:	AF B0 00 1C 		sw      s0,28(sp)
0x00000054:	03 A0 F0 21 		addu    fp,sp,zero
0x00000058:	AF C4 00 28 		sw      a0,40(fp)
0x0000005C:	8F C2 00 28 		lw      v0,40(fp)
0x00000060:	00 20 08 25 		or      at,at,zero
0x00000064:	14 40 00 04 		bne     v0,zero,16
0x00000078:	8F C3 00 28 		lw      v1,40(fp)
0x0000007C:	24 02 00 01 		addiu   v0,zero,1
0x00000080:	14 62 00 04 		bne     v1,v0,16
0x00000094:	8F C2 00 28 		lw      v0,40(fp)
0x00000098:	00 20 08 25 		or      at,at,zero
0x0000009C:	24 42 FF FF 		addiu   v0,v0,-1
0x000000A0:	00 40 20 21 		addu    a0,v0,zero
0x000000A4:	0C 00 00 11 		jal     0x00000044
0x00000044:	27 BD FF D8 		addiu   sp,sp,-40
0x00000048:	AF BF 00 24 		sw      ra,36(sp)
0x0000004C:	AF BE 00 20 		sw      fp,32(sp)
0x00000050:	AF B0 00 1C 		sw      s0,28(sp)
0x00000054:	03 A0 F0 21 		addu    fp,sp,zero
0x00000058:	AF C4 00 28 		sw      a0,40(fp)
0x0000005C:	8F C2 00 28 		lw      v0,40(fp)
0x00000060:	00 20 08 25 		or      at,at,zero
0x00000064:	14 40 00 04 		bne     v0,zero,16
0x00000078:	8F C3 00 28 		lw      v1,40(fp)
0x0000007C:	24 02 00 01 		addiu   v0,zero,1
0x00000080:	14 62 00 04 		bne     v1,v0,16
0x00000094:	8F C2 00 28 		lw      v0,40(fp)
0x00000098:	00 20 08 25 		or      at,at,zero
0x0000009C:	24 42 FF FF 		addiu   v0,v0,-1
0x000000A0:	00 40 20 21 		addu    a0,v0,zero
0x000000A4:	0C 00 00 11 		jal     0x00000044
0x00000044:	27 BD FF D8 		addiu   sp,sp,-40
0x00000048:	AF BF 00 24 		sw      ra,36(sp)
0x0000004C:	AF BE 00 20 		sw      fp,32(sp)
0x00000050:	AF B0 00 1C 		sw      s0,28(sp)
0x00000054:	03 A0 F0 21 		addu    fp,sp,zero
0x00000058:	AF C4 00 28 		sw      a0,40(fp)
0x0000005C:	8F C2 00 28 		lw      v0,40(fp)
0x00000060:	00 20 08 25 		or      at,at,zero
0x00000064:	14 40 00 04 		bne     v0,zero,16
0x00000078:	8F C3 00 28 		lw      v1,40(fp)
0x0000007C:	24 02 00 01 		addiu   v0,zero,1
0x00000080:	14 62 00 04 		bne     v1,v0,16
0x00000094:	8F C2 00 28 		lw      v0,40(fp)
0x00000098:	00 20 08 25 		or      at,at,zero
0x0000009C:	24 42 FF FF 		addiu   v0,v0,-1
0x000000A0:	00 40 20 21 		addu    a0,v0,zero
0x000000A4:	0C 00 00 11 		jal     0x00000044
0x00000044:	27 BD FF D8 		addiu   sp,sp,-40
0x00000048:	AF BF 00 24 		sw      ra,36(sp)
0x0000004C:	AF BE 00 20 		sw      fp,32(sp)
0x00000050:	AF B0 00 1C 		sw      s0,28(sp)
0x00000054:	03 A0 F0 21 		addu    fp,sp,zero
0x00000058:	AF C4 00 28 		sw      a0,40(fp)
0x0000005C:	8F C2 00 28 		lw      v0,40(fp)
0x00000060:	00 20 08 25 		or      at,at,zero
0x00000064:	14 40 00 04 		bne     v0,zero,16
0x00000078:	8F C3 00 28 		lw      v1,40(fp)
0x0000007C:	24 02 00 01 		addiu   v0,zero,1
0x00000080:	14 62 00 04 		bne     v1,v0,16
0x00000094:	8F C2 00 28 		lw      v0,40(fp)
0x00000098:	00 20 08 25 		or      at,at,zero
0x0000009C:	24 42 FF FF 		addiu   v0,v0,-1
0x000000A0:	00 40 20 21 		addu    a0,v0,zero
0x000000A4:	0C 00 00 11 		jal     0x00000044
0x00000044:	27 BD FF D8 		addiu   sp,sp,-40
0x00000048:	AF BF 00 24 		sw      ra,36(sp)
0x0000004C:	AF BE 00 20 		sw      fp,32(sp)
0x00000050:	AF B0 00 1C 		sw      s0,28(sp)
0x00000054:	03 A0 F0 21 		addu    fp,sp,zero
0x00000058:	AF C4 00 28 		sw      a0,40(fp)
0x0000005C:	8F C2 00 28 		lw      v0,40(fp)
0x00000060:	00 20 08 25 		or      at,at,zero
0x00000064:	14 40 00 04 		bne     v0,zero,16
0x00000078:	8F C3 00 28 		lw      v1,40(fp)
0x0000007C:	24 02 00 01 		addiu   v0,zero,1
0x00000080:	14 62 00 04 		bne     v1,v0,16
0x00000084:	00 20 08 25 		or      at,at,zero
0x00000088:	24 02 00 01 		addiu   v0,zero,1
0x0000008C:	08 00 00 33 		j       0x000000CC
0x000000CC:	03 C0 E8 21 		addu    sp,fp,zero
0x000000D0:	8F BF 00 24 		lw      ra,36(sp)
0x000000D4:	8F BE 00 20 		lw      fp,32(sp)
0x000000D8:	8F B0 00 1C 		lw      s0,28(sp)
0x000000DC:	27 BD 00 28 		addiu   sp,sp,40
0x000000E0:	03 E0 00 08 		jr      ra
0x000000A8:	00 20 08 25 		or      at,at,zero
0x000000AC:	00 40 80 21 		addu    s0,v0,zero
0x000000B0:	8F C2 00 28 		lw      v0,40(fp)
0x000000B4:	00 20 08 25 		or      at,at,zero
0x000000B8:	24 42 FF FE 		addiu   v0,v0,-2
0x000000BC:	00 40 20 21 		addu    a0,v0,zero
0x000000C0:	0C 00 00 11 		jal     0x00000044
0x00000044:	27 BD FF D8 		addiu   sp,sp,-40
0x00000048:	AF BF 00 24 		sw      ra,36(sp)
0x0000004C:	AF BE 00 20 		sw      fp,32(sp)
0x00000050:	AF B0 00 1C 		sw      s0,28(sp)
0x00000054:	03 A0 F0 21 		addu    fp,sp,zero
0x00000058:	AF C4 00 28 		sw      a0,40(fp)
0x0000005C:	8F C2 00 28 		lw      v0,40(fp)
0x00000060:	00 20 08 25 		or      at,at,zero
0x00000064:	14 40 00 04 		bne     v0,zero,16
0x00000068:	00 20 08 25 		or      at,at,zero
0x0000006C:	00 00 10 21 		addu    v0,zero,zero
0x00000070:	08 00 00 33 		j       0x000000CC
0x000000CC:	03 C0 E8 21 		addu    sp,fp,zero
0x000000D0:	8F BF 00 24 		lw      ra,36(sp)
0x000000D4:	8F BE 00 20 		lw      fp,32(sp)
0x000000D8:	8F B0 00 1C 		lw      s0,28(sp)
0x000000DC:	27 BD 00 28 		addiu   sp,sp,40
0x000000E0:	03 E0 00 08 		jr      ra
0x000000C4:	00 20 08 25 		or      at,at,zero
0x000000C8:	02 02 10 21 		addu    v0,s0,v0
0x000000CC:	03 C0 E8 21 		addu    sp,fp,zero
0x000000D0:	8F BF 00 24 		lw      ra,36(sp)
0x000000D4:	8F BE 00 20 		lw      fp,32(sp)
0x000000D8:	8F B0 00 1C 		lw      s0,28(sp)
0x000000DC:	27 BD 00 28 		addiu   sp,sp,40
0x000000E0:	03 E0 00 08 		jr      ra
0x000000A8:	00 20 08 25 		or      at,at,zero
0x000000AC:	00 40 80 21 		addu    s0,v0,zero
0x000000B0:	8F C2 00 28 		lw      v0,40(fp)
0x000000B4:	00 20 08 25 		or      at,at,zero
0x000000B8:	24 42 FF FE 		addiu   v0,v0,-2
0x000000BC:	00 40 20 21 		addu    a0,v0,zero
0x000000C0:	0C 00 00 11 		jal     0x00000044
0x00000044:	27 BD FF D8 		addiu   sp,sp,-40
0x00000048:	AF BF 00 24 		sw      ra,36(sp)
0x0000004C:	AF BE 00 20 		sw      fp,32(sp)
0x00000050:	AF B0 00 1C 		sw      s0,28(sp)
0x00000054:	03 A0 F0 21 		addu    fp,sp,zero
0x00000058:	AF C4 00 28 		sw      a0,40(fp)
0x0000005C:	8F C2 00 28 		lw      v0,40(fp)
0x00000060:	00 20 08 25 		or      at,at,zero
0x00000064:	14 40 00 04 		bne     v0,zero,16
0x00000078:	8F C3 00 28 		lw      v1,40(fp)
0x0000007C:	24 02 00 01 		addiu   v0,zero,1
0x00000080:	14 62 00 04 		bne     v1,v0,16
0x00000084:	00 20 08 25 		or      at,at,zero
0x00000088:	24 02 00 01 		addiu   v0,zero,1
0x0000008C:	08 00 00 33 		j       0x000000CC
0x000000CC:	03 C0 E8 21 		addu    sp,fp,zero
0x000000D0:	8F BF 00 24 		lw      ra,36(sp)
0x000000D4:	8F BE 00 20 		lw      fp,32(sp)
0x000000D8:	8F B0 00 1C 		lw      s0,28(sp)
0x000000DC:	27 BD 00 28 		addiu   sp,sp,40
0x000000E0:	03 E0 00 08 		jr      ra
0x000000C4:	00 20 08 25 		or      at,at,zero
0x000000C8:	02 02 10 21 		addu    v0,s0,v0
0x000000CC:	03 C0 E8 21 		addu    sp,fp,zero
0x000000D0:	8F BF 00 24 		lw      ra,36(sp)
0x000000D4:	8F BE 00 20 		lw      fp,32(sp)
0x000000D8:	8F B0 00 1C 		lw      s0,28(sp)
0x000000DC:	27 BD 00 28 		addiu   sp,sp,40
0x000000E0:	03 E0 00 08 		jr      ra
0x000000A8:	00 20 08 25 		or      at,at,zero
0x000000AC:	00 40 80 21 		addu    s0,v0,zero
0x000000B0:	8F C2 00 28 		lw      v0,40(fp)
0x000000B4:	00 20 08 25 		or      at,at,zero
0x000000B8:	24 42 FF FE 		addiu   v0,v0,-2
0x000000BC:	00 40 20 21 		addu    a0,v0,zero
0x000000C0:	0C 00 00 11 		jal     0x00000044
0x00000044:	27 BD FF D8 		addiu   sp,sp,-40
0x00000048:	AF BF 00 24 		sw      ra,36(sp)
0x0000004C:	AF BE 00 20 		sw      fp,32(sp)
0x00000050:	AF B0 00 1C 		sw      s0,28(sp)
0x00000054:	03 A0 F0 21 		addu    fp,sp,zero
0x00000058:	AF C4 00 28 		sw      a0,40(fp)
0x0000005C:	8F C2 00 28 		lw      v0,40(fp)
0x00000060:	00 20 08 25 		or      at,at,zero
0x00000064:	14 40 00 04 		bne     v0,zero,16
0x00000078:	8F C3 00 28 		lw      v1,40(fp)
0x0000007C:	24 02 00 01 		addiu   v0,zero,1
0x00000080:	14 62 00 04 		bne     v1,v0,16
0x00000094:	8F C2 00 28 		lw      v0,40(fp)
0x00000098:	00 20 08 25 		or      at,at,zero
0x0000009C:	24 42 FF FF 		addiu   v0,v0,-1
0x000000A0:	00 40 20 21 		addu    a0,v0,zero
0x000000A4:	0C 00 00 11 		jal     0x00000044
0x00000044:	27 BD FF D8 		addiu   sp,sp,-40
0x00000048:	AF BF 00 24 		sw      ra,36(sp)
0x0000004C:	AF BE 00 20 		sw      fp,32(sp)
0x00000050:	AF B0 00 1C 		sw      s0,28(sp)
0x00000054:	03 A0 F0 21 		addu    fp,sp,zero
0x00000058:	AF C4 00 28 		sw      a0,40(fp)
0x0000005C:	8F C2 00 28 		lw      v0,40(fp)
0x00000060:	00 20 08 25 		or      at,at,zero
0x00000064:	14 40 00 04 		bne     v0,zero,16
0x00000078:	8F C3 00 28 		lw      v1,40(fp)
0x0000007C:	24 02 00 01 		addiu   v0,zero,1
0x00000080:	14 62 00 04 		bne     v1,v0,16
0x00000084:	00 20 08 25 		or      at,at,zero
0x00000088:	24 02 00 01 		addiu   v0,zero,1
0x0000008C:	08 00 00 33 		j       0x000000CC
0x000000CC:	03 C0 E8 21 		addu    sp,fp,zero
0x000000D0:	8F BF 00 24 		lw      ra,36(sp)
0x000000D4:	8F BE 00 20 		lw      fp,32(sp)
0x000000D8:	8F B0 00 1C 		lw      s0,28(sp)
0x000000DC:	27 BD 00 28 		addiu   sp,sp,40
0x000000E0:	03 E0 00 08 		jr      ra
0x000000A8:	00 20 08 25 		or      at,at,zero
0x000000AC:	00 40 80 21 		addu    s0,v0,zero
0x000000B0:	8F C2 00 28 		lw      v0,40(fp)
0x000000B4:	00 20 08 25 		or      at,at,zero
0x000000B8:	24 42 FF FE 		addiu   v0,v0,-2
0x000000BC:	00 40 20 21 		addu    a0,v0,zero
0x000000C0:	0C 00 00 11 		jal     0x00000044
0x00000044:	27 BD FF D8 		addiu   sp,sp,-40
0x00000048:	AF BF 00 24 		sw      ra,36(sp)
0x0000004C:	AF BE 00 20 		sw      fp,32(sp)
0x00000050:	AF B0 00 1C 		sw      s0,28(sp)
0x00000054:	03 A0 F0 21 		addu    fp,sp,zero
0x00000058:	AF C4 00 28 		sw      a0,40(fp)
0x0000005C:	8F C2 00 28 		lw      v0,40(fp)
0x00000060:	00 20 08 25 		or      at,at,zero
0x00000064:	14 40 00 04 		bne     v0,zero,16
0x00000068:	00 20 08 25 		or      at,at,zero
0x0000006C:	00 00 10 21 		addu    v0,zero,zero
0x00000070:	08 00 00 33 		j       0x000000CC
0x000000CC:	03 C0 E8 21 		addu    sp,fp,zero
0x000000D0:	8F BF 00 24 		lw      ra,36(sp)
0x000000D4:	8F BE 00 20 		lw      fp,32(sp)
0x000000D8:	8F B0 00 1C 		lw      s0,28(sp)
0x000000DC:	27 BD 00 28 		addiu   sp,sp,40
0x000000E0:	03 E0 00 08 		jr      ra
0x000000C4:	00 20 08 25 		or      at,at,zero
0x000000C8:	02 02 10 21 		addu    v0,s0,v0
0x000000CC:	03 C0 E8 21 		addu    sp,fp,zero
0x000000D0:	8F BF 00 24 		lw      ra,36(sp)
0x000000D4:	8F BE 00 20 		lw      fp,32(sp)
0x000000D8:	8F B0 00 1C 		lw      s0,28(sp)
0x000000DC:	27 BD 00 28 		addiu   sp,sp,40
0x000000E0:	03 E0 00 08 		jr      ra
0x000000C4:	00 20 08 25 		or      at,at,zero
0x000000C8:	02 02 10 21 		addu    v0,s0,v0
0x000000CC:	03 C0 E8 21 		addu    sp,fp,zero
0x000000D0:	8F BF 00 24 		lw      ra,36(sp)
0x000000D4:	8F BE 00 20 		lw      fp,32(sp)
0x000000D8:	8F B0 00 1C 		lw      s0,28(sp)
0x000000DC:	27 BD 00 28 		addiu   sp,sp,40
0x000000E0:	03 E0 00 08 		jr      ra
0x000000A8:	00 20 08 25 		or      at,at,zero
0x000000AC:	00 40 80 21 		addu    s0,v0,zero
0x000000B0:	8F C2 00 28 		lw      v0,40(fp)
0x000000B4:	00 20 08 25 		or      at,at,zero
0x000000B8:	24 42 FF FE 		addiu   v0,v0,-2
0x000000BC:	00 40 20 21 		addu    a0,v0,zero
0x000000C0:	0C 00 00 11 		jal     0x00000044
0x00000044:	27 BD FF D8 		addiu   sp,sp,-40
0x00000048:	AF BF 00 24 		sw      ra,36(sp)
0x0000004C:	AF BE 00 20 		sw      fp,32(sp)
0x00000050:	AF B0 00 1C 		sw      s0,28(sp)
0x00000054:	03 A0 F0 21 		addu    fp,sp,zero
0x00000058:	AF C4 00 28 		sw      a0,40(fp)
0x0000005C:	8F C2 00 28 		lw      v0,40(fp)
0x00000060:	00 20 08 25 		or      at,at,zero
0x00000064:	14 40 00 04 		bne     v0,zero,16
0x00000078:	8F C3 00 28 		lw      v1,40(fp)
0x0000007C:	24 02 00 01 		addiu   v0,zero,1
0x00000080:	14 62 00 04 		bne     v1,v0,16
0x00000094:	8F C2 00 28 		lw      v0,40(fp)
0x00000098:	00 20 08 25 		or      at,at,zero
0x0000009C:	24 42 FF FF 		addiu   v0,v0,-1
0x000000A0:	00 40 20 21 		addu    a0,v0,zero
0x000000A4:	0C 00 00 11 		jal     0x00000044
0x00000044:	27 BD FF D8 		addiu   sp,sp,-40
0x00000048:	AF BF 00 24 		sw      ra,36(sp)
0x0000004C:	AF BE 00 20 		sw      fp,32(sp)
0x00000050:	AF B0 00 1C 		sw      s0,28(sp)
0x00000054:	03 A0 F0 21 		addu    fp,sp,zero
0x00000058:	AF C4 00 28 		sw      a0,40(fp)
0x0000005C:	8F C2 00 28 		lw      v0,40(fp)
0x00000060:	00 20 08 25 		or      at,at,zero
0x00000064:	14 40 00 04 		bne     v0,zero,16
0x00000078:	8F C3 00 28 		lw      v1,40(fp)
0x0000007C:	24 02 00 01 		addiu   v0,zero,1
0x00000080:	14 62 00 04 		bne     v1,v0,16
0x00000094:	8F C2 00 28 		lw      v0,40(fp)
0x00000098:	00 20 08 25 		or      at,at,zero
0x0000009C:	24 42 FF FF 		addiu   v0,v0,-1
0x000000A0:	00 40 20 21 		addu    a0,v0,zero
0x000000A4:	0C 00 00 11 		jal     0x00000044
0x00000044:	27 BD FF D8 		addiu   sp,sp,-40
0x00000048:	AF BF 00 24 		sw      ra,36(sp)
0x0000004C:	AF BE 00 20 		sw      fp,32(sp)
0x00000050:	AF B0 00 1C 		sw      s0,28(sp)
0x00000054:	03 A0 F0 21 		addu    fp,sp,zero
0x00000058:	AF C4 00 28 		sw      a0,40(fp)
0x0000005C:	8F C2 00 28 		lw      v0,40(fp)
0x00000060:	00 20 08 25 		or      at,at,zero
0x00000064:	14 40 00 04 		bne     v0,zero,16
0x00000078:	8F C3 00 28 		lw      v1,40(fp)
0x0000007C:	24 02 00 01 		addiu   v0,zero,1
0x00000080:	14 62 00 04 		bne     v1,v0,16
0x00000084:	00 20 08 25 		or      at,at,zero
0x00000088:	24 02 00 01 		addiu   v0,zero,1
0x0000008C:	08 00 00 33 		j       0x000000CC
0x000000CC:	03 C0 E8 21 		addu    sp,fp,zero
0x000000D0:	8F BF 00 24 		lw      ra,36(sp)
0x000000D4:	8F BE 00 20 		lw      fp,32(sp)
0x000000D8:	8F B0 00 1C 		lw      s0,28(sp)
0x000000DC:	27 BD 00 28 		addiu   sp,sp,40
0x000000E0:	03 E0 00 08 		jr      ra
0x000000A8:	00 20 08 25 		or      at,at,zero
0x000000AC:	00 40 80 21 		addu    s0,v0,zero
0x000000B0:	8F C2 00 28 		lw      v0,40(fp)
0x000000B4:	00 20 08 25 		or      at,at,zero
0x000000B8:	24 42 FF FE 		addiu   v0,v0,-2
0x000000BC:	00 40 20 21 		addu    a0,v0,zero
0x000000C0:	0C 00 00 11 		jal     0x00000044
0x00000044:	27 BD FF D8 		addiu   sp,sp,-40
0x00000048:	AF BF 00 24 		sw      ra,36(sp)
0x0000004C:	AF BE 00 20 		sw      fp,32(sp)
0x00000050:	AF B0 00 1C 		sw      s0,28(sp)
0x00000054:	03 A0 F0 21 		addu    fp,sp,zero
0x00000058:	AF C4 00 28 		sw      a0,40(fp)
0x0000005C:	8F C2 00 28 		lw      v0,40(fp)
0x00000060:	00 20 08 25 		or      at,at,zero
0x00000064:	14 40 00 04 		bne     v0,zero,16
0x00000068:	00 20 08 25 		or      at,at,zero
0x0000006C:	00 00 10 21 		addu    v0,zero,zero
0x00000070:	08 00 00 33 		j       0x000000CC
0x000000CC:	03 C0 E8 21 		addu    sp,fp,zero
0x000000D0:	8F BF 00 24 		lw      ra,36(sp)
0x000000D4:	8F BE 00 20 		lw      fp,32(sp)
0x000000D8:	8F B0 00 1C 		lw      s0,28(sp)
0x000000DC:	27 BD 00 28 		addiu   sp,sp,40
0x000000E0:	03 E0 00 08 		jr      ra
0x000000C4:	00 20 08 25 		or      at,at,zero
0x000000C8:	02 02 10 21 		addu    v0,s0,v0
0x000000CC:	03 C0 E8 21 		addu    sp,fp,zero
0x000000D0:	8F BF 00 24 		lw      ra,36(sp)
0x000000D4:	8F BE 00 20 		lw      fp,32(sp)
0x000000D8:	8F B0 00 1C 		lw      s0,28(sp)
0x000000DC:	27 BD 00 28 		addiu   sp,sp,40
0x000000E0:	03 E0 00 08 		jr      ra
0x000000A8:	00 20 08 25 		or      at,at,zero
0x000000AC:	00 40 80 21 		addu    s0,v0,zero
0x000000B0:	8F C2 00 28 		lw      v0,40(fp)
0x000000B4:	00 20 08 25 		or      at,at,zero
0x000000B8:	24 42 FF FE 		addiu   v0,v0,-2
0x000000BC:	00 40 20 21 		addu    a0,v0,zero
0x000000C0:	0C 00 00 11 		jal     0x00000044
0x00000044:	27 BD FF D8 		addiu   sp,sp,-40
0x00000048:	AF BF 00 24 		sw      ra,36(sp)
0x0000004C:	AF BE 00 20 		sw      fp,32(sp)
0x00000050:	AF B0 00 1C 		sw      s0,28(sp)
0x00000054:	03 A0 F0 21 		addu    fp,sp,zero
0x00000058:	AF C4 00 28 		sw      a0,40(fp)
0x0000005C:	8F C2 00 28 		lw      v0,40(fp)
0x00000060:	00 20 08 25 		or      at,at,zero
0x00000064:	14 40 00 04 		bne     v0,zero,16
0x00000078:	8F C3 00 28 		lw      v1,40(fp)
0x0000007C:	24 02 00 01 		addiu   v0,zero,1
0x00000080:	14 62 00 04 		bne     v1,v0,16
0x00000084:	00 20 08 25 		or      at,at,zero
0x00000088:	24 02 00 01 		addiu   v0,zero,1
0x0000008C:	08 00 00 33 		j       0x000000CC
0x000000CC:	03 C0 E8 21 		addu    sp,fp,zero
0x000000D0:	8F BF 00 24 		lw      ra,36(sp)
0x000000D4:	8F BE 00 20 		lw      fp,32(sp)
0x000000D8:	8F B0 00 1C 		lw      s0,28(sp)
0x000000DC:	27 BD 00 28 		addiu   sp,sp,40
0x000000E0:	03 E0 00 08 		jr      ra
0x000000C4:	00 20 08 25 		or      at,at,zero
0x000000C8:	02 02 10 21 		addu    v0,s0,v0
0x000000CC:	03 C0 E8 21 		addu    sp,fp,zero
0x000000D0:	8F BF 00 24 		lw      ra,36(sp)
0x000000D4:	8F BE 00 20 		lw      fp,32(sp)
0x000000D8:	8F B0 00 1C 		lw      s0,28(sp)
0x000000DC:	27 BD 00 28 		addiu   sp,sp,40
0x000000E0:	03 E0 00 08 		jr      ra
0x000000C4:	00 20 08 25 		or      at,at,zero
0x000000C8:	02 02 10 21 		addu    v0,s0,v0
0x000000CC:	03 C0 E8 21 		addu    sp,fp,zero
0x000000D0:	8F BF 00 24 		lw      ra,36(sp)
0x000000D4:	8F BE 00 20 		lw      fp,32(sp)
0x000000D8:	8F B0 00 1C 		lw      s0,28(sp)
0x000000DC:	27 BD 00 28 		addiu   sp,sp,40
0x000000E0:	03 E0 00 08 		jr      ra
0x000000A8:	00 20 08 25 		or      at,at,zero
0x000000AC:	00 40 80 21 		addu    s0,v0,zero
0x000000B0:	8F C2 00 28 		lw      v0,40(fp)
0x000000B4:	00 20 08 25 		or      at,at,zero
0x000000B8:	24 42 FF FE 		addiu   v0,v0,-2
0x000000BC:	00 40 20 21 		addu    a0,v0,zero
0x000000C0:	0C 00 00 11 		jal     0x00000044
0x00000044:	27 BD FF D8 		addiu   sp,sp,-40
0x00000048:	AF BF 00 24 		sw      ra,36(sp)
0x0000004C:	AF BE 00 20 		sw      fp,32(sp)
0x00000050:	AF B0 00 1C 		sw      s0,28(sp)
0x00000054:	03 A0 F0 21 		addu    fp,sp,zero
0x00000058:	AF C4 00 28 		sw      a0,40(fp)
0x0000005C:	8F C2 00 28 		lw      v0,40(fp)
0x00000060:	00 20 08 25 		or      at,at,zero
0x00000064:	14 40 00 04 		bne     v0,zero,16
0x00000078:	8F C3 00 28 		lw      v1,40(fp)
0x0000007C:	24 02 00 01 		addiu   v0,zero,1
0x00000080:	14 62 00 04 		bne     v1,v0,16
0x00000094:	8F C2 00 28 		lw      v0,40(fp)
0x00000098:	00 20 08 25 		or      at,at,zero
0x0000009C:	24 42 FF FF 		addiu   v0,v0,-1
0x000000A0:	00 40 20 21 		addu    a0,v0,zero
0x000000A4:	0C 00 00 11 		jal     0x00000044
0x00000044:	27 BD FF D8 		addiu   sp,sp,-40
0x00000048:	AF BF 00 24 		sw      ra,36(sp)
0x0000004C:	AF BE 00 20 		sw      fp,32(sp)
0x00000050:	AF B0 00 1C 		sw      s0,28(sp)
0x00000054:	03 A0 F0 21 		addu    fp,sp,zero
0x00000058:	AF C4 00 28 		sw      a0,40(fp)
0x0000005C:	8F C2 00 28 		lw      v0,40(fp)
0x00000060:	00 20 08 25 		or      at,at,zero
0x00000064:	14 40 00 04 		bne     v0,zero,16
0x00000078:	8F C3 00 28 		lw      v1,40(fp)
0x0000007C:	24 02 00 01 		addiu   v0,zero,1
0x00000080:	14 62 00 04 		bne     v1,v0,16
0x00000094:	8F C2 00 28 		lw      v0,40(fp)
0x00000098:	00 20 08 25 		or      at,at,zero
0x0000009C:	24 42 FF FF 		addiu   v0,v0,-1
0x000000A0:	00 40 20 21 		addu    a0,v0,zero
0x000000A4:	0C 00 00 11 		jal     0x00000044
0x00000044:	27 BD FF D8 		addiu   sp,sp,-40
0x00000048:	AF BF 00 24 		sw      ra,36(sp)
0x0000004C:	AF BE 00 20 		sw      fp,32(sp)
0x00000050:	AF B0 00 1C 		sw      s0,28(sp)
0x00000054:	03 A0 F0 21 		addu    fp,sp,zero
0x00000058:	AF C4 00 28 		sw      a0,40(fp)
0x0000005C:	8F C2 00 28 		lw      v0,40(fp)
0x00000060:	00 20 08 25 		or      at,at,zero
0x00000064:	14 40 00 04 		bne     v0,zero,16
0x00000078:	8F C3 00 28 		lw      v1,40(fp)
0x0000007C:	24 02 00 01 		addiu   v0,zero,1
0x00000080:	14 62 00 04 		bne     v1,v0,16
0x00000094:	8F C2 00 28 		lw      v0,40(fp)
0x00000098:	00 20 08 25 		or      at,at,zero
0x0000009C:	24 42 FF FF 		addiu   v0,v0,-1
0x000000A0:	00 40 20 21 		addu    a0,v0,zero
0x000000A4:	0C 00 00 11 		jal     0x00000044
0x00000044:	27 BD FF D8 		addiu   sp,sp,-40
0x00000048:	AF BF 00 24 		sw      ra,36(sp)
0x0000004C:	AF BE 00 20 		sw      fp,32(sp)
0x00000050:	AF B0 00 1C 		sw      s0,28(sp)
0x00000054:	03 A0 F0 21 		addu    fp,sp,zero
0x00000058:	AF C4 00 28 		sw      a0,40(fp)
0x0000005C:	8F C2 00 28 		lw      v0,40(fp)
0x00000060:	00 20 08 25 		or      at,at,zero
0x00000064:	14 40 00 04 		bne     v0,zero,16
0x00000078:	8F C3 00 28 		lw      v1,40(fp)
0x0000007C:	24 02 00 01 		addiu   v0,zero,1
0x00000080:	14 62 00 04 		bne     v1,v0,16
0x00000084:	00 20 08 25 		or      at,at,zero
0x00000088:	24 02 00 01 		addiu   v0,zero,1
0x0000008C:	08 00 00 33 		j       0x000000CC
0x000000CC:	03 C0 E8 21 		addu    sp,fp,zero
0x000000D0:	8F BF 00 24 		lw      ra,36(sp)
0x000000D4:	8F BE 00 20 		lw      fp,32(sp)
0x000000D8:	8F B0 00 1C 		lw      s0,28(sp)
0x000000DC:	27 BD 00 28 		addiu   sp,sp,40
0x000000E0:	03 E0 00 08 		jr      ra
0x000000A8:	00 20 08 25 		or      at,at,zero
0x000000AC:	00 40 80 21 		addu    s0,v0,zero
0x000000B0:	8F C2 00 28 		lw      v0,40(fp)
0x000000B4:	00 20 08 25 		or      at,at,zero
0x000000B8:	24 42 FF FE 		addiu   v0,v0,-2
0x000000BC:	00 40 20 21 		addu    a0,v0,zero
0x000000C0:	0C 00 00 11 		jal     0x00000044
0x00000044:	27 BD FF D8 		addiu   sp,sp,-40
0x00000048:	AF BF 00 24 		sw      ra,36(sp)
0x0000004C:	AF BE 00 20 		sw      fp,32(sp)
0x00000050:	AF B0 00 1C 		sw      s0,28(sp)
0x00000054:	03 A0 F0 21 		addu    fp,sp,zero
0x00000058:	AF C4 00 28 		sw      a0,40(fp)
0x0000005C:	8F C2 00 28 		lw      v0,40(fp)
0x00000060:	00 20 08 25 		or      at,at,zero
0x00000064:	14 40 00 04 		bne     v0,zero,16
0x00000068:	00 20 08 25 		or      at,at,zero
0x0000006C:	00 00 10 21 		addu    v0,zero,zero
0x00000070:	08 00 00 33 		j       0x000000CC
0x000000CC:	03 C0 E8 21 		addu    sp,fp,zero
0x000000D0:	8F BF 00 24 		lw      ra,36(sp)
0x000000D4:	8F BE 00 20 		lw      fp,32(sp)
0x000000D8:	8F B0 00 1C 		lw      s0,28(sp)
0x000000DC:	27 BD 00 28 		addiu   sp,sp,40
0x000000E0:	03 E0 00 08 		jr      ra
0x000000C4:	00 20 08 25 		or      at,at,zero
0x000000C8:	02 02 10 21 		addu    v0,s0,v0
0x000000CC:	03 C0 E8 21 		addu    sp,fp,zero
0x000000D0:	8F BF 00 24 		lw      ra,36(sp)
0x000000D4:	8F BE 00 20 		lw      fp,32(sp)
0x000000D8:	8F B0 00 1C 		lw      s0,28(sp)
0x000000DC:	27 BD 00 28 		addiu   sp,sp,40
0x000000E0:	03 E0 00 08 		jr      ra
0x000000A8:	00 20 08 25 		or      at,at,zero
0x000000AC:	00 40 80 21 		addu    s0,v0,zero
0x000000B0:	8F C2 00 28 		lw      v0,40(fp)
0x000000B4:	00 20 08 25 		or      at,at,zero
0x000000B8:	24 42 FF FE 		addiu   v0,v0,-2
0x000000BC:	00 40 20 21 		addu    a0,v0,zero
0x000000C0:	0C 00 00 11 		jal     0x00000044
0x00000044:	27 BD FF D8 		addiu   sp,sp,-40
0x00000048:	AF BF 00 24 		sw      ra,36(sp)
0x0000004C:	AF BE 00 20 		sw      fp,32(sp)
0x00000050:	AF B0 00 1C 		sw      s0,28(sp)
0x00000054:	03 A0 F0 21 		addu    fp,sp,zero
0x00000058:	AF C4 00 28 		sw      a0,40(fp)
0x0000005C:	8F C2 00 28 		lw      v0,40(fp)
0x00000060:	00 20 08 25 		or      at,at,zero
0x00000064:	14 40 00 04 		bne     v0,zero,16
0x00000078:	8F C3 00 28 		lw      v1,40(fp)
0x0000007C:	24 02 00 01 		addiu   v0,zero,1
0x00000080:	14 62 00 04 		bne     v1,v0,16
0x00000084:	00 20 08 25 		or      at,at,zero
0x00000088:	24 02 00 01 		addiu   v0,zero,1
0x0000008C:	08 00 00 33 		j       0x000000CC
0x000000CC:	03 C0 E8 21 		addu    sp,fp,zero
0x000000D0:	8F BF 00 24 		lw      ra,36(sp)
0x000000D4:	8F BE 00 20 		lw      fp,32(sp)
0x000000D8:	8F B0 00 1C 		lw      s0,28(sp)
0x000000DC:	27 BD 00 28 		addiu   sp,sp,40
0x000000E0:	03 E0 00 08 		jr      ra
0x000000C4:	00 20 08 25 		or      at,at,zero
0x000000C8:	02 02 10 21 		addu    v0,s0,v0
0x000000CC:	03 C0 E8 21 		addu    sp,fp,zero
0x000000D0:	8F BF 00 24 		lw      ra,36(sp)
0x000000D4:	8F BE 00 20 		lw      fp,32(sp)
0x000000D8:	8F B0 00 1C 		lw      s0,28(sp)
0x000000DC:	27 BD 00 28 		addiu   sp,sp,40
0x000000E0:	03 E0 00 08 		jr      ra
0x000000A8:	00 20 08 25 		or      at,at,zero
0x000000AC:	00 40 80 21 		addu    s0,v0,zero
0x000000B0:	8F C2 00 28 		lw      v0,40(fp)
0x000000B4:	00 20 08 25 		or      at,at,zero
0x000000B8:	24 42 FF FE 		addiu   v0,v0,-2
0x000000BC:	00 40 20 21 		addu    a0,v0,zero
0x000000C0:	0C 00 00 11 		jal     0x00000044
0x00000044:	27 BD FF D8 		addiu   sp,sp,-40
0x00000048:	AF BF 00 24 		sw      ra,36(sp)
0x0000004C:	AF BE 00 20 		sw      fp,32(sp)
0x00000050:	AF B0 00 1C 		sw      s0,28(sp)
0x00000054:	03 A0 F0 21 		addu    fp,sp,zero
0x00000058:	AF C4 00 28 		sw      a0,40(fp)
0x0000005C:	8F C2 00 28 		lw      v0,40(fp)
0x00000060:	00 20 08 25 		or      at,at,zero
0x00000064:	14 40 00 04 		bne     v0,zero,16
0x00000078:	8F C3 00 28 		lw      v1,40(fp)
0x0000007C:	24 02 00 01 		addiu   v0,zero,1
0x00000080:	14 62 00 04 		bne     v1,v0,16
0x00000094:	8F C2 00 28 		lw      v0,40(fp)
0x00000098:	00 20 08 25 		or      at,at,zero
0x0000009C:	24 42 FF FF 		addiu   v0,v0,-1
0x000000A0:	00 40 20 21 		addu    a0,v0,zero
0x000000A4:	0C 00 00 11 		jal     0x00000044
0x00000044:	27 BD FF D8 		addiu   sp,sp,-40
0x00000048:	AF BF 00 24 		sw      ra,36(sp)
0x0000004C:	AF BE 00 20 		sw      fp,32(sp)
0x00000050:	AF B0 00 1C 		sw      s0,28(sp)
0x00000054:	03 A0 F0 21 		addu    fp,sp,zero
0x00000058:	AF C4 00 28 		sw      a0,40(fp)
0x0000005C:	8F C2 00 28 		lw      v0,40(fp)
0x00000060:	00 20 08 25 		or      at,at,zero
0x00000064:	14 40 00 04 		bne     v0,zero,16
0x00000078:	8F C3 00 28 		lw      v1,40(fp)
0x0000007C:	24 02 00 01 		addiu   v0,zero,1
0x00000080:	14 62 00 04 		bne     v1,v0,16
0x00000084:	00 20 08 25 		or      at,at,zero
0x00000088:	24 02 00 01 		addiu   v0,zero,1
0x0000008C:	08 00 00 33 		j       0x000000CC
0x000000CC:	03 C0 E8 21 		addu    sp,fp,zero
0x000000D0:	8F BF 00 24 		lw      ra,36(sp)
0x000000D4:	8F BE 00 20 		lw      fp,32(sp)
0x000000D8:	8F B0 00 1C 		lw      s0,28(sp)
0x000000DC:	27 BD 00 28 		addiu   sp,sp,40
0x000000E0:	03 E0 00 08 		jr      ra
0x000000A8:	00 20 08 25 		or      at,at,zero
0x000000AC:	00 40 80 21 		addu    s0,v0,zero
0x000000B0:	8F C2 00 28 		lw      v0,40(fp)
0x000000B4:	00 20 08 25 		or      at,at,zero
0x000000B8:	24 42 FF FE 		addiu   v0,v0,-2
0x000000BC:	00 40 20 21 		addu    a0,v0,zero
0x000000C0:	0C 00 00 11 		jal     0x00000044
0x00000044:	27 BD FF D8 		addiu   sp,sp,-40
0x00000048:	AF BF 00 24 		sw      ra,36(sp)
0x0000004C:	AF BE 00 20 		sw      fp,32(sp)
0x00000050:	AF B0 00 1C 		sw      s0,28(sp)
0x00000054:	03 A0 F0 21 		addu    fp,sp,zero
0x00000058:	AF C4 00 28 		sw      a0,40(fp)
0x0000005C:	8F C2 00 28 		lw      v0,40(fp)
0x00000060:	00 20 08 25 		or      at,at,zero
0x00000064:	14 40 00 04 		bne     v0,zero,16
0x00000068:	00 20 08 25 		or      at,at,zero
0x0000006C:	00 00 10 21 		addu    v0,zero,zero
0x00000070:	08 00 00 33 		j       0x000000CC
0x000000CC:	03 C0 E8 21 		addu    sp,fp,zero
0x000000D0:	8F BF 00 24 		lw      ra,36(sp)
0x000000D4:	8F BE 00 20 		lw      fp,32(sp)
0x000000D8:	8F B0 00 1C 		lw      s0,28(sp)
0x000000DC:	27 BD 00 28 		addiu   sp,sp,40
0x000000E0:	03 E0 00 08 		jr      ra
0x000000C4:	00 20 08 25 		or      at,at,zero
0x000000C8:	02 02 10 21 		addu    v0,s0,v0
0x000000CC:	03 C0 E8 21 		addu    sp,fp,zero
0x000000D0:	8F BF 00 24 		lw      ra,36(sp)
0x000000D4:	8F BE 00 20 		lw      fp,32(sp)
0x000000D8:	8F B0 00 1C 		lw      s0,28(sp)
0x000000DC:	27 BD 00 28 		addiu   sp,sp,40
0x000000E0:	03 E0 00 08 		jr      ra
0x000000C4:	00 20 08 25 		or      at,at,zero
0x000000C8:	02 02 10 21 		addu    v0,s0,v0
0x000000CC:	03 C0 E8 21 		addu    sp,fp,zero
0x000000D0:	8F BF 00 24 		lw      ra,36(sp)
0x000000D4:	8F BE 00 20 		lw      fp,32(sp)
0x000000D8:	8F B0 00 1C 		lw      s0,28(sp)
0x000000DC:	27 BD 00 28 		addiu   sp,sp,40
0x000000E0:	03 E0 00 08 		jr      ra
0x000000C4:	00 20 08 25 		or      at,at,zero
0x000000C8:	02 02 10 21 		addu    v0,s0,v0
0x000000CC:	03 C0 E8 21 		addu    sp,fp,zero
0x000000D0:	8F BF 00 24 		lw      ra,36(sp)
0x000000D4:	8F BE 00 20 		lw      fp,32(sp)
0x000000D8:	8F B0 00 1C 		lw      s0,28(sp)
0x000000DC:	27 BD 00 28 		addiu   sp,sp,40
0x000000E0:	03 E0 00 08 		jr      ra
0x000000A8:	00 20 08 25 		or      at,at,zero
0x000000AC:	00 40 80 21 		addu    s0,v0,zero
0x000000B0:	8F C2 00 28 		lw      v0,40(fp)
0x000000B4:	00 20 08 25 		or      at,at,zero
0x000000B8:	24 42 FF FE 		addiu   v0,v0,-2
0x000000BC:	00 40 20 21 		addu    a0,v0,zero
0x000000C0:	0C 00 00 11 		jal     0x00000044
0x00000044:	27 BD FF D8 		addiu   sp,sp,-40
0x00000048:	AF BF 00 24 		sw      ra,36(sp)
0x0000004C:	AF BE 00 20 		sw      fp,32(sp)
0x00000050:	AF B0 00 1C 		sw      s0,28(sp)
0x00000054:	03 A0 F0 21 		addu    fp,sp,zero
0x00000058:	AF C4 00 28 		sw      a0,40(fp)
0x0000005C:	8F C2 00 28 		lw      v0,40(fp)
0x00000060:	00 20 08 25 		or      at,at,zero
0x00000064:	14 40 00 04 		bne     v0,zero,16
0x00000078:	8F C3 00 28 		lw      v1,40(fp)
0x0000007C:	24 02 00 01 		addiu   v0,zero,1
0x00000080:	14 62 00 04 		bne     v1,v0,16
0x00000094:	8F C2 00 28 		lw      v0,40(fp)
0x00000098:	00 20 08 25 		or      at,at,zero
0x0000009C:	24 42 FF FF 		addiu   v0,v0,-1
0x000000A0:	00 40 20 21 		addu    a0,v0,zero
0x000000A4:	0C 00 00 11 		jal     0x00000044
0x00000044:	27 BD FF D8 		addiu   sp,sp,-40
0x00000048:	AF BF 00 24 		sw      ra,36(sp)
0x0000004C:	AF BE 00 20 		sw      fp,32(sp)
0x00000050:	AF B0 00 1C 		sw      s0,28(sp)
0x00000054:	03 A0 F0 21 		addu    fp,sp,zero
0x00000058:	AF C4 00 28 		sw      a0,40(fp)
0x0000005C:	8F C2 00 28 		lw      v0,40(fp)
0x00000060:	00 20 08 25 		or      at,at,zero
0x00000064:	14 40 00 04 		bne     v0,zero,16
0x00000078:	8F C3 00 28 		lw      v1,40(fp)
0x0000007C:	24 02 00 01 		addiu   v0,zero,1
0x00000080:	14 62 00 04 		bne     v1,v0,16
0x00000094:	8F C2 00 28 		lw      v0,40(fp)
0x00000098:	00 20 08 25 		or      at,at,zero
0x0000009C:	24 42 FF FF 		addiu   v0,v0,-1
0x000000A0:	00 40 20 21 		addu    a0,v0,zero
0x000000A4:	0C 00 00 11 		jal     0x00000044
0x00000044:	27 BD FF D8 		addiu   sp,sp,-40
0x00000048:	AF BF 00 24 		sw      ra,36(sp)
0x0000004C:	AF BE 00 20 		sw      fp,32(sp)
0x00000050:	AF B0 00 1C 		sw      s0,28(sp)
0x00000054:	03 A0 F0 21 		addu    fp,sp,zero
0x00000058:	AF C4 00 28 		sw      a0,40(fp)
0x0000005C:	8F C2 00 28 		lw      v0,40(fp)
0x00000060:	00 20 08 25 		or      at,at,zero
0x00000064:	14 40 00 04 		bne     v0,zero,16
0x00000078:	8F C3 00 28 		lw      v1,40(fp)
0x0000007C:	24 02 00 01 		addiu   v0,zero,1
0x00000080:	14 62 00 04 		bne     v1,v0,16
0x00000094:	8F C2 00 28 		lw      v0,40(fp)
0x00000098:	00 20 08 25 		or      at,at,zero
0x0000009C:	24 42 FF FF 		addiu   v0,v0,-1
0x000000A0:	00 40 20 21 		addu    a0,v0,zero
0x000000A4:	0C 00 00 11 		jal     0x00000044
0x00000044:	27 BD FF D8 		addiu   sp,sp,-40
0x00000048:	AF BF 00 24 		sw      ra,36(sp)
0x0000004C:	AF BE 00 20 		sw      fp,32(sp)
0x00000050:	AF B0 00 1C 		sw      s0,28(sp)
0x00000054:	03 A0 F0 21 		addu    fp,sp,zero
0x00000058:	AF C4 00 28 		sw      a0,40(fp)
0x0000005C:	8F C2 00 28 		lw      v0,40(fp)
0x00000060:	00 20 08 25 		or      at,at,zero
0x00000064:	14 40 00 04 		bne     v0,zero,16
0x00000078:	8F C3 00 28 		lw      v1,40(fp)
0x0000007C:	24 02 00 01 		addiu   v0,zero,1
0x00000080:	14 62 00 04 		bne     v1,v0,16
0x00000094:	8F C2 00 28 		lw      v0,40(fp)
0x00000098:	00 20 08 25 		or      at,at,zero
0x0000009C:	24 42 FF FF 		addiu   v0,v0,-1
0x000000A0:	00 40 20 21 		addu    a0,v0,zero
0x000000A4:	0C 00 00 11 		jal     0x00000044
0x00000044:	27 BD FF D8 		addiu   sp,sp,-40
0x00000048:	AF BF 00 24 		sw      ra,36(sp)
0x0000004C:	AF BE 00 20 		sw      fp,32(sp)
0x00000050:	AF B0 00 1C 		sw      s0,28(sp)
0x00000054:	03 A0 F0 21 		addu    fp,sp,zero
0x00000058:	AF C4 00 28 		sw      a0,40(fp)
0x0000005C:	8F C2 00 28 		lw      v0,40(fp)
0x00000060:	00 20 08 25 		or      at,at,zero
0x00000064:	14 40 00 04 		bne     v0,zero,16
0x00000078:	8F C3 00 28 		lw      v1,40(fp)
0x0000007C:	24 02 00 01 		addiu   v0,zero,1
0x00000080:	14 62 00 04 		bne     v1,v0,16
0x00000084:	00 20 08 25 		or      at,at,zero
0x00000088:	24 02 00 01 		addiu   v0,zero,1
0x0000008C:	08 00 00 33 		j       0x000000CC
0x000000CC:	03 C0 E8 21 		addu    sp,fp,zero
0x000000D0:	8F BF 00 24 		lw      ra,36(sp)
0x000000D4:	8F BE 00 20 		lw      fp,32(sp)
0x000000D8:	8F B0 00 1C 		lw      s0,28(sp)
0x000000DC:	27 BD 00 28 		addiu   sp,sp,40
0x000000E0:	03 E0 00 08 		jr      ra
0x000000A8:	00 20 08 25 		or      at,at,zero
0x000000AC:	00 40 80 21 		addu    s0,v0,zero
0x000000B0:	8F C2 00 28 		lw      v0,40(fp)
0x000000B4:	00 20 08 25 		or      at,at,zero
0x000000B8:	24 42 FF FE 		addiu   v0,v0,-2
0x000000BC:	00 40 20 21 		addu    a0,v0,zero
0x000000C0:	0C 00 00 11 		jal     0x00000044
0x00000044:	27 BD FF D8 		addiu   sp,sp,-40
0x00000048:	AF BF 00 24 		sw      ra,36(sp)
0x0000004C:	AF BE 00 20 		sw      fp,32(sp)
0x00000050:	AF B0 00 1C 		sw      s0,28(sp)
0x00000054:	03 A0 F0 21 		addu    fp,sp,zero
0x00000058:	AF C4 00 28 		sw      a0,40(fp)
0x0000005C:	8F C2 00 28 		lw      v0,40(fp)
0x00000060:	00 20 08 25 		or      at,at,zero
0x00000064:	14 40 00 04 		bne     v0,zero,16
0x00000068:	00 20 08 25 		or      at,at,zero
0x0000006C:	00 00 10 21 		addu    v0,zero,zero
0x00000070:	08 00 00 33 		j       0x000000CC
0x000000CC:	03 C0 E8 21 		addu    sp,fp,zero
0x000000D0:	8F BF 00 24 		lw      ra,36(sp)
0x000000D4:	8F BE 00 20 		lw      fp,32(sp)
0x000000D8:	8F B0 00 1C 		lw      s0,28(sp)
0x000000DC:	27 BD 00 28 		addiu   sp,sp,40
0x000000E0:	03 E0 00 08 		jr      ra
0x000000C4:	00 20 08 25 		or      at,at,zero
0x000000C8:	02 02 10 21 		addu    v0,s0,v0
0x000000CC:	03 C0 E8 21 		addu    sp,fp,zero
0x000000D0:	8F BF 00 24 		lw      ra,36(sp)
0x000000D4:	8F BE 00 20 		lw      fp,32(sp)
0x000000D8:	8F B0 00 1C 		lw      s0,28(sp)
0x000000DC:	27 BD 00 28 		addiu   sp,sp,40
0x000000E0:	03 E0 00 08 		jr      ra
0x000000A8:	00 20 08 25 		or      at,at,zero
0x000000AC:	00 40 80 21 		addu    s0,v0,zero
0x000000B0:	8F C2 00 28 		lw      v0,40(fp)
0x000000B4:	00 20 08 25 		or      at,at,zero
0x000000B8:	24 42 FF FE 		addiu   v0,v0,-2
0x000000BC:	00 40 20 21 		addu    a0,v0,zero
0x000000C0:	0C 00 00 11 		jal     0x00000044
0x00000044:	27 BD FF D8 		addiu   sp,sp,-40
0x00000048:	AF BF 00 24 		sw      ra,36(sp)
0x0000004C:	AF BE 00 20 		sw      fp,32(sp)
0x00000050:	AF B0 00 1C 		sw      s0,28(sp)
0x00000054:	03 A0 F0 21 		addu    fp,sp,zero
0x00000058:	AF C4 00 28 		sw      a0,40(fp)
0x0000005C:	8F C2 00 28 		lw      v0,40(fp)
0x00000060:	00 20 08 25 		or      at,at,zero
0x00000064:	14 40 00 04 		bne     v0,zero,16
0x00000078:	8F C3 00 28 		lw      v1,40(fp)
0x0000007C:	24 02 00 01 		addiu   v0,zero,1
0x00000080:	14 62 00 04 		bne     v1,v0,16
0x00000084:	00 20 08 25 		or      at,at,zero
0x00000088:	24 02 00 01 		addiu   v0,zero,1
0x0000008C:	08 00 00 33 		j       0x000000CC
0x000000CC:	03 C0 E8 21 		addu    sp,fp,zero
0x000000D0:	8F BF 00 24 		lw      ra,36(sp)
0x000000D4:	8F BE 00 20 		lw      fp,32(sp)
0x000000D8:	8F B0 00 1C 		lw      s0,28(sp)
0x000000DC:	27 BD 00 28 		addiu   sp,sp,40
0x000000E0:	03 E0 00 08 		jr      ra
0x000000C4:	00 20 08 25 		or      at,at,zero
0x000000C8:	02 02 10 21 		addu    v0,s0,v0
0x000000CC:	03 C0 E8 21 		addu    sp,fp,zero
0x000000D0:	8F BF 00 24 		lw      ra,36(sp)
0x000000D4:	8F BE 00 20 		lw      fp,32(sp)
0x000000D8:	8F B0 00 1C 		lw      s0,28(sp)
0x000000DC:	27 BD 00 28 		addiu   sp,sp,40
0x000000E0:	03 E0 00 08 		jr      ra
0x000000A8:	00 20 08 25 		or      at,at,zero
0x000000AC:	00 40 80 21 		addu    s0,v0,zero
0x000000B0:	8F C2 00 28 		lw      v0,40(fp)
0x000000B4:	00 20 08 25 		or      at,at,zero
0x000000B8:	24 42 FF FE 		addiu   v0,v0,-2
0x000000BC:	00 40 20 21 		addu    a0,v0,zero
0x000000C0:	0C 00 00 11 		jal     0x00000044
0x00000044:	27 BD FF D8 		addiu   sp,sp,-40
0x00000048:	AF BF 00 24 		sw      ra,36(sp)
0x0000004C:	AF BE 00 20 		sw      fp,32(sp)
0x00000050:	AF B0 00 1C 		sw      s0,28(sp)
0x00000054:	03 A0 F0 21 		addu    fp,sp,zero
0x00000058:	AF C4 00 28 		sw      a0,40(fp)
0x0000005C:	8F C2 00 28 		lw      v0,40(fp)
0x00000060:	00 20 08 25 		or      at,at,zero
0x00000064:	14 40 00 04 		bne     v0,zero,16
0x00000078:	8F C3 00 28 		lw      v1,40(fp)
0x0000007C:	24 02 00 01 		addiu   v0,zero,1
0x00000080:	14 62 00 04 		bne     v1,v0,16
0x00000094:	8F C2 00 28 		lw      v0,40(fp)
0x00000098:	00 20 08 25 		or      at,at,zero
0x0000009C:	24 42 FF FF 		addiu   v0,v0,-1
0x000000A0:	00 40 20 21 		addu    a0,v0,zero
0x000000A4:	0C 00 00 11 		jal     0x00000044
0x00000044:	27 BD FF D8 		addiu   sp,sp,-40
0x00000048:	AF BF 00 24 		sw      ra,36(sp)
0x0000004C:	AF BE 00 20 		sw      fp,32(sp)
0x00000050:	AF B0 00 1C 		sw      s0,28(sp)
0x00000054:	03 A0 F0 21 		addu    fp,sp,zero
0x00000058:	AF C4 00 28 		sw      a0,40(fp)
0x0000005C:	8F C2 00 28 		lw      v0,40(fp)
0x00000060:	00 20 08 25 		or      at,at,zero
0x00000064:	14 40 00 04 		bne     v0,zero,16
0x00000078:	8F C3 00 28 		lw      v1,40(fp)
0x0000007C:	24 02 00 01 		addiu   v0,zero,1
0x00000080:	14 62 00 04 		bne     v1,v0,16
0x00000084:	00 20 08 25 		or      at,at,zero
0x00000088:	24 02 00 01 		addiu   v0,zero,1
0x0000008C:	08 00 00 33 		j       0x000000CC
0x000000CC:	03 C0 E8 21 		addu    sp,fp,zero
0x000000D0:	8F BF 00 24 		lw      ra,36(sp)
0x000000D4:	8F BE 00 20 		lw      fp,32(sp)
0x000000D8:	8F B0 00 1C 		lw      s0,28(sp)
0x000000DC:	27 BD 00 28 		addiu   sp,sp,40
0x000000E0:	03 E0 00 08 		jr      ra
0x000000A8:	00 20 08 25 		or      at,at,zero
0x000000AC:	00 40 80 21 		addu    s0,v0,zero
0x000000B0:	8F C2 00 28 		lw      v0,40(fp)
0x000000B4:	00 20 08 25 		or      at,at,zero
0x000000B8:	24 42 FF FE 		addiu   v0,v0,-2
0x000000BC:	00 40 20 21 		addu    a0,v0,zero
0x000000C0:	0C 00 00 11 		jal     0x00000044
0x00000044:	27 BD FF D8 		addiu   sp,sp,-40
0x00000048:	AF BF 00 24 		sw      ra,36(sp)
0x0000004C:	AF BE 00 20 		sw      fp,32(sp)
0x00000050:	AF B0 00 1C 		sw      s0,28(sp)
0x00000054:	03 A0 F0 21 		addu    fp,sp,zero
0x00000058:	AF C4 00 28 		sw      a0,40(fp)
0x0000005C:	8F C2 00 28 		lw      v0,40(fp)
0x00000060:	00 20 08 25 		or      at,at,zero
0x00000064:	14 40 00 04 		bne     v0,zero,16
0x00000068:	00 20 08 25 		or      at,at,zero
0x0000006C:	00 00 10 21 		addu    v0,zero,zero
0x00000070:	08 00 00 33 		j       0x000000CC
0x000000CC:	03 C0 E8 21 		addu    sp,fp,zero
0x000000D0:	8F BF 00 24 		lw      ra,36(sp)
0x000000D4:	8F BE 00 20 		lw      fp,32(sp)
0x000000D8:	8F B0 00 1C 		lw      s0,28(sp)
0x000000DC:	27 BD 00 28 		addiu   sp,sp,40
0x000000E0:	03 E0 00 08 		jr      ra
0x000000C4:	00 20 08 25 		or      at,at,zero
0x000000C8:	02 02 10 21 		addu    v0,s0,v0
0x000000CC:	03 C0 E8 21 		addu    sp,fp,zero
0x000000D0:	8F BF 00 24 		lw      ra,36(sp)
0x000000D4:	8F BE 00 20 		lw      fp,32(sp)
0x000000D8:	8F B0 00 1C 		lw      s0,28(sp)
0x000000DC:	27 BD 00 28 		addiu   sp,sp,40
0x000000E0:	03 E0 00 08 		jr      ra
0x000000C4:	00 20 08 25 		or      at,at,zero
0x000000C8:	02 02 10 21 		addu    v0,s0,v0
0x000000CC:	03 C0 E8 21 		addu    sp,fp,zero
0x000000D0:	8F BF 00 24 		lw      ra,36(sp)
0x000000D4:	8F BE 00 20 		lw      fp,32(sp)
0x000000D8:	8F B0 00 1C 		lw      s0,28(sp)
0x000000DC:	27 BD 00 28 		addiu   sp,sp,40
0x000000E0:	03 E0 00 08 		jr      ra
0x000000A8:	00 20 08 25 		or      at,at,zero
0x000000AC:	00 40 80 21 		addu    s0,v0,zero
0x000000B0:	8F C2 00 28 		lw      v0,40(fp)
0x000000B4:	00 20 08 25 		or      at,at,zero
0x000000B8:	24 42 FF FE 		addiu   v0,v0,-2
0x000000BC:	00 40 20 21 		addu    a0,v0,zero
0x000000C0:	0C 00 00 11 		jal     0x00000044
0x00000044:	27 BD FF D8 		addiu   sp,sp,-40
0x00000048:	AF BF 00 24 		sw      ra,36(sp)
0x0000004C:	AF BE 00 20 		sw      fp,32(sp)
0x00000050:	AF B0 00 1C 		sw      s0,28(sp)
0x00000054:	03 A0 F0 21 		addu    fp,sp,zero
0x00000058:	AF C4 00 28 		sw      a0,40(fp)
0x0000005C:	8F C2 00 28 		lw      v0,40(fp)
0x00000060:	00 20 08 25 		or      at,at,zero
0x00000064:	14 40 00 04 		bne     v0,zero,16
0x00000078:	8F C3 00 28 		lw      v1,40(fp)
0x0000007C:	24 02 00 01 		addiu   v0,zero,1
0x00000080:	14 62 00 04 		bne     v1,v0,16
0x00000094:	8F C2 00 28 		lw      v0,40(fp)
0x00000098:	00 20 08 25 		or      at,at,zero
0x0000009C:	24 42 FF FF 		addiu   v0,v0,-1
0x000000A0:	00 40 20 21 		addu    a0,v0,zero
0x000000A4:	0C 00 00 11 		jal     0x00000044
0x00000044:	27 BD FF D8 		addiu   sp,sp,-40
0x00000048:	AF BF 00 24 		sw      ra,36(sp)
0x0000004C:	AF BE 00 20 		sw      fp,32(sp)
0x00000050:	AF B0 00 1C 		sw      s0,28(sp)
0x00000054:	03 A0 F0 21 		addu    fp,sp,zero
0x00000058:	AF C4 00 28 		sw      a0,40(fp)
0x0000005C:	8F C2 00 28 		lw      v0,40(fp)
0x00000060:	00 20 08 25 		or      at,at,zero
0x00000064:	14 40 00 04 		bne     v0,zero,16
0x00000078:	8F C3 00 28 		lw      v1,40(fp)
0x0000007C:	24 02 00 01 		addiu   v0,zero,1
0x00000080:	14 62 00 04 		bne     v1,v0,16
0x00000094:	8F C2 00 28 		lw      v0,40(fp)
0x00000098:	00 20 08 25 		or      at,at,zero
0x0000009C:	24 42 FF FF 		addiu   v0,v0,-1
0x000000A0:	00 40 20 21 		addu    a0,v0,zero
0x000000A4:	0C 00 00 11 		jal     0x00000044
0x00000044:	27 BD FF D8 		addiu   sp,sp,-40
0x00000048:	AF BF 00 24 		sw      ra,36(sp)
0x0000004C:	AF BE 00 20 		sw      fp,32(sp)
0x00000050:	AF B0 00 1C 		sw      s0,28(sp)
0x00000054:	03 A0 F0 21 		addu    fp,sp,zero
0x00000058:	AF C4 00 28 		sw      a0,40(fp)
0x0000005C:	8F C2 00 28 		lw      v0,40(fp)
0x00000060:	00 20 08 25 		or      at,at,zero
0x00000064:	14 40 00 04 		bne     v0,zero,16
0x00000078:	8F C3 00 28 		lw      v1,40(fp)
0x0000007C:	24 02 00 01 		addiu   v0,zero,1
0x00000080:	14 62 00 04 		bne     v1,v0,16
0x00000084:	00 20 08 25 		or      at,at,zero
0x00000088:	24 02 00 01 		addiu   v0,zero,1
0x0000008C:	08 00 00 33 		j       0x000000CC
0x000000CC:	03 C0 E8 21 		addu    sp,fp,zero
0x000000D0:	8F BF 00 24 		lw      ra,36(sp)
0x000000D4:	8F BE 00 20 		lw      fp,32(sp)
0x000000D8:	8F B0 00 1C 		lw      s0,28(sp)
0x000000DC:	27 BD 00 28 		addiu   sp,sp,40
0x000000E0:	03 E0 00 08 		jr      ra
0x000000A8:	00 20 08 25 		or      at,at,zero
0x000000AC:	00 40 80 21 		addu    s0,v0,zero
0x000000B0:	8F C2 00 28 		lw      v0,40(fp)
0x000000B4:	00 20 08 25 		or      at,at,zero
0x000000B8:	24 42 FF FE 		addiu   v0,v0,-2
0x000000BC:	00 40 20 21 		addu    a0,v0,zero
0x000000C0:	0C 00 00 11 		jal     0x00000044
0x00000044:	27 BD FF D8 		addiu   sp,sp,-40
0x00000048:	AF BF 00 24 		sw      ra,36(sp)
0x0000004C:	AF BE 00 20 		sw      fp,32(sp)
0x00000050:	AF B0 00 1C 		sw      s0,28(sp)
0x00000054:	03 A0 F0 21 		addu    fp,sp,zero
0x00000058:	AF C4 00 28 		sw      a0,40(fp)
0x0000005C:	8F C2 00 28 		lw      v0,40(fp)
0x00000060:	00 20 08 25 		or      at,at,zero
0x00000064:	14 40 00 04 		bne     v0,zero,16
0x00000068:	00 20 08 25 		or      at,at,zero
0x0000006C:	00 00 10 21 		addu    v0,zero,zero
0x00000070:	08 00 00 33 		j       0x000000CC
0x000000CC:	03 C0 E8 21 		addu    sp,fp,zero
0x000000D0:	8F BF 00 24 		lw      ra,36(sp)
0x000000D4:	8F BE 00 20 		lw      fp,32(sp)
0x000000D8:	8F B0 00 1C 		lw      s0,28(sp)
0x000000DC:	27 BD 00 28 		addiu   sp,sp,40
0x000000E0:	03 E0 00 08 		jr      ra
0x000000C4:	00 20 08 25 		or      at,at,zero
0x000000C8:	02 02 10 21 		addu    v0,s0,v0
0x000000CC:	03 C0 E8 21 		addu    sp,fp,zero
0x000000D0:	8F BF 00 24 		lw      ra,36(sp)
0x000000D4:	8F BE 00 20 		lw      fp,32(sp)
0x000000D8:	8F B0 00 1C 		lw      s0,28(sp)
0x000000DC:	27 BD 00 28 		addiu   sp,sp,40
0x000000E0:	03 E0 00 08 		jr      ra
0x000000A8:	00 20 08 25 		or      at,at,zero
0x000000AC:	00 40 80 21 		addu    s0,v0,zero
0x000000B0:	8F C2 00 28 		lw      v0,40(fp)
0x000000B4:	00 20 08 25 		or      at,at,zero
0x000000B8:	24 42 FF FE 		addiu   v0,v0,-2
0x000000BC:	00 40 20 21 		addu    a0,v0,zero
0x000000C0:	0C 00 00 11 		jal     0x00000044
0x00000044:	27 BD FF D8 		addiu   sp,sp,-40
0x00000048:	AF BF 00 24 		sw      ra,36(sp)
0x0000004C:	AF BE 00 20 		sw      fp,32(sp)
0x00000050:	AF B0 00 1C 		sw      s0,28(sp)
0x00000054:	03 A0 F0 21 		addu    fp,sp,zero
0x00000058:	AF C4 00 28 		sw      a0,40(fp)
0x0000005C:	8F C2 00 28 		lw      v0,40(fp)
0x00000060:	00 20 08 25 		or      at,at,zero
0x00000064:	14 40 00 04 		bne     v0,zero,16
0x00000078:	8F C3 00 28 		lw      v1,40(fp)
0x0000007C:	24 02 00 01 		addiu   v0,zero,1
0x00000080:	14 62 00 04 		bne     v1,v0,16
0x00000084:	00 20 08 25 		or      at,at,zero
0x00000088:	24 02 00 01 		addiu   v0,zero,1
0x0000008C:	08 00 00 33 		j       0x000000CC
0x000000CC:	03 C0 E8 21 		addu    sp,fp,zero
0x000000D0:	8F BF 00 24 		lw      ra,36(sp)
0x000000D4:	8F BE 00 20 		lw      fp,32(sp)
0x000000D8:	8F B0 00 1C 		lw      s0,28(sp)
0x000000DC:	27 BD 00 28 		addiu   sp,sp,40
0x000000E0:	03 E0 00 08 		jr      ra
0x000000C4:	00 20 08 25 		or      at,at,zero
0x000000C8:	02 02 10 21 		addu    v0,s0,v0
0x000000CC:	03 C0 E8 21 		addu    sp,fp,zero
0x000000D0:	8F BF 00 24 		lw      ra,36(sp)
0x000000D4:	8F BE 00 20 		lw      fp,32(sp)
0x000000D8:	8F B0 00 1C 		lw      s0,28(sp)
0x000000DC:	27 BD 00 28 		addiu   sp,sp,40
0x000000E0:	03 E0 00 08 		jr      ra
0x000000C4:	00 20 08 25 		or      at,at,zero
0x000000C8:	02 02 10 21 		addu    v0,s0,v0
0x000000CC:	03 C0 E8 21 		addu    sp,fp,zero
0x000000D0:	8F BF 00 24 		lw      ra,36(sp)
0x000000D4:	8F BE 00 20 		lw      fp,32(sp)
0x000000D8:	8F B0 00 1C 		lw      s0,28(sp)
0x000000DC:	27 BD 00 28 		addiu   sp,sp,40
0x000000E0:	03 E0 00 08 		jr      ra
0x000000C4:	00 20 08 25 		or      at,at,zero
0x000000C8:	02 02 10 21 		addu    v0,s0,v0
0x000000CC:	03 C0 E8 21 		addu    sp,fp,zero
0x000000D0:	8F BF 00 24 		lw      ra,36(sp)
0x000000D4:	8F BE 00 20 		lw      fp,32(sp)
0x000000D8:	8F B0 00 1C 		lw      s0,28(sp)
0x000000DC:	27 BD 00 28 		addiu   sp,sp,40
0x000000E0:	03 E0 00 08 		jr      ra
0x000000A8:	00 20 08 25 		or      at,at,zero
0x000000AC:	00 40 80 21 		addu    s0,v0,zero
0x000000B0:	8F C2 00 28 		lw      v0,40(fp)
0x000000B4:	00 20 08 25 		or      at,at,zero
0x000000B8:	24 42 FF FE 		addiu   v0,v0,-2
0x000000BC:	00 40 20 21 		addu    a0,v0,zero
0x000000C0:	0C 00 00 11 		jal     0x00000044
0x00000044:	27 BD FF D8 		addiu   sp,sp,-40
0x00000048:	AF BF 00 24 		sw      ra,36(sp)
0x0000004C:	AF BE 00 20 		sw      fp,32(sp)
0x00000050:	AF B0 00 1C 		sw      s0,28(sp)
0x00000054:	03 A0 F0 21 		addu    fp,sp,zero
0x00000058:	AF C4 00 28 		sw      a0,40(fp)
0x0000005C:	8F C2 00 28 		lw      v0,40(fp)
0x00000060:	00 20 08 25 		or      at,at,zero
0x00000064:	14 40 00 04 		bne     v0,zero,16
0x00000078:	8F C3 00 28 		lw      v1,40(fp)
0x0000007C:	24 02 00 01 		addiu   v0,zero,1
0x00000080:	14 62 00 04 		bne     v1,v0,16
0x00000094:	8F C2 00 28 		lw      v0,40(fp)
0x00000098:	00 20 08 25 		or      at,at,zero
0x0000009C:	24 42 FF FF 		addiu   v0,v0,-1
0x000000A0:	00 40 20 21 		addu    a0,v0,zero
0x000000A4:	0C 00 00 11 		jal     0x00000044
0x00000044:	27 BD FF D8 		addiu   sp,sp,-40
0x00000048:	AF BF 00 24 		sw      ra,36(sp)
0x0000004C:	AF BE 00 20 		sw      fp,32(sp)
0x00000050:	AF B0 00 1C 		sw      s0,28(sp)
0x00000054:	03 A0 F0 21 		addu    fp,sp,zero
0x00000058:	AF C4 00 28 		sw      a0,40(fp)
0x0000005C:	8F C2 00 28 		lw      v0,40(fp)
0x00000060:	00 20 08 25 		or      at,at,zero
0x00000064:	14 40 00 04 		bne     v0,zero,16
0x00000078:	8F C3 00 28 		lw      v1,40(fp)
0x0000007C:	24 02 00 01 		addiu   v0,zero,1
0x00000080:	14 62 00 04 		bne     v1,v0,16
0x00000094:	8F C2 00 28 		lw      v0,40(fp)
0x00000098:	00 20 08 25 		or      at,at,zero
0x0000009C:	24 42 FF FF 		addiu   v0,v0,-1
0x000000A0:	00 40 20 21 		addu    a0,v0,zero
0x000000A4:	0C 00 00 11 		jal     0x00000044
0x00000044:	27 BD FF D8 		addiu   sp,sp,-40
0x00000048:	AF BF 00 24 		sw      ra,36(sp)
0x0000004C:	AF BE 00 20 		sw      fp,32(sp)
0x00000050:	AF B0 00 1C 		sw      s0,28(sp)
0x00000054:	03 A0 F0 21 		addu    fp,sp,zero
0x00000058:	AF C4 00 28 		sw      a0,40(fp)
0x0000005C:	8F C2 00 28 		lw      v0,40(fp)
0x00000060:	00 20 08 25 		or      at,at,zero
0x00000064:	14 40 00 04 		bne     v0,zero,16
0x00000078:	8F C3 00 28 		lw      v1,40(fp)
0x0000007C:	24 02 00 01 		addiu   v0,zero,1
0x00000080:	14 62 00 04 		bne     v1,v0,16
0x00000094:	8F C2 00 28 		lw      v0,40(fp)
0x00000098:	00 20 08 25 		or      at,at,zero
0x0000009C:	24 42 FF FF 		addiu   v0,v0,-1
0x000000A0:	00 40 20 21 		addu    a0,v0,zero
0x000000A4:	0C 00 00 11 		jal     0x00000044
0x00000044:	27 BD FF D8 		addiu   sp,sp,-40
0x00000048:	AF BF 00 24 		sw      ra,36(sp)
0x0000004C:	AF BE 00 20 		sw      fp,32(sp)
0x00000050:	AF B0 00 1C 		sw      s0,28(sp)
0x00000054:	03 A0 F0 21 		addu    fp,sp,zero
0x00000058:	AF C4 00 28 		sw      a0,40(fp)
0x0000005C:	8F C2 00 28 		lw      v0,40(fp)
0x00000060:	00 20 08 25 		or      at,at,zero
0x00000064:	14 40 00 04 		bne     v0,zero,16
0x00000078:	8F C3 00 28 		lw      v1,40(fp)
0x0000007C:	24 02 00 01 		addiu   v0,zero,1
0x00000080:	14 62 00 04 		bne     v1,v0,16
0x00000094:	8F C2 00 28 		lw      v0,40(fp)
0x00000098:	00 20 08 25 		or      at,at,zero
0x0000009C:	24 42 FF FF 		addiu   v0,v0,-1
0x000000A0:	00 40 20 21 		addu    a0,v0,zero
0x000000A4:	0C 00 00 11 		jal     0x00000044
0x00000044:	27 BD FF D8 		addiu   sp,sp,-40
0x00000048:	AF BF 00 24 		sw      ra,36(sp)
0x0000004C:	AF BE 00 20 		sw      fp,32(sp)
0x00000050:	AF B0 00 1C 		sw      s0,28(sp)
0x00000054:	03 A0 F0 21 		addu    fp,sp,zero
0x00000058:	AF C4 00 28 		sw      a0,40(fp)
0x0000005C:	8F C2 00 28 		lw      v0,40(fp)
0x00000060:	00 20 08 25 		or      at,at,zero
0x00000064:	14 40 00 04 		bne     v0,zero,16
0x00000078:	8F C3 00 28 		lw      v1,40(fp)
0x0000007C:	24 02 00 01 		addiu   v0,zero,1
0x00000080:	14 62 00 04 		bne     v1,v0,16
0x00000094:	8F C2 00 28 		lw      v0,40(fp)
0x00000098:	00 20 08 25 		or      at,at,zero
0x0000009C:	24 42 FF FF 		addiu   v0,v0,-1
0x000000A0:	00 40 20 21 		addu    a0,v0,zero
0x000000A4:	0C 00 00 11 		jal     0x00000044
0x00000044:	27 BD FF D8 		addiu   sp,sp,-40
0x00000048:	AF BF 00 24 		sw      ra,36(sp)
0x0000004C:	AF BE 00 20 		sw      fp,32(sp)
0x00000050:	AF B0 00 1C 		sw      s0,28(sp)
0x00000054:	03 A0 F0 21 		addu    fp,sp,zero
0x00000058:	AF C4 00 28 		sw      a0,40(fp)
0x0000005C:	8F C2 00 28 		lw      v0,40(fp)
0x00000060:	00 20 08 25 		or      at,at,zero
0x00000064:	14 40 00 04 		bne     v0,zero,16
0x00000078:	8F C3 00 28 		lw      v1,40(fp)
0x0000007C:	24 02 00 01 		addiu   v0,zero,1
0x00000080:	14 62 00 04 		bne     v1,v0,16
0x00000084:	00 20 08 25 		or      at,at,zero
0x00000088:	24 02 00 01 		addiu   v0,zero,1
0x0000008C:	08 00 00 33 		j       0x000000CC
0x000000CC:	03 C0 E8 21 		addu    sp,fp,zero
0x000000D0:	8F BF 00 24 		lw      ra,36(sp)
0x000000D4:	8F BE 00 20 		lw      fp,32(sp)
0x000000D8:	8F B0 00 1C 		lw      s0,28(sp)
0x000000DC:	27 BD 00 28 		addiu   sp,sp,40
0x000000E0:	03 E0 00 08 		jr      ra
0x000000A8:	00 20 08 25 		or      at,at,zero
0x000000AC:	00 40 80 21 		addu    s0,v0,zero
0x000000B0:	8F C2 00 28 		lw      v0,40(fp)
0x000000B4:	00 20 08 25 		or      at,at,zero
0x000000B8:	24 42 FF FE 		addiu   v0,v0,-2
0x000000BC:	00 40 20 21 		addu    a0,v0,zero
0x000000C0:	0C 00 00 11 		jal     0x00000044
0x00000044:	27 BD FF D8 		addiu   sp,sp,-40
0x00000048:	AF BF 00 24 		sw      ra,36(sp)
0x0000004C:	AF BE 00 20 		sw      fp,32(sp)
0x00000050:	AF B0 00 1C 		sw      s0,28(sp)
0x00000054:	03 A0 F0 21 		addu    fp,sp,zero
0x00000058:	AF C4 00 28 		sw      a0,40(fp)
0x0000005C:	8F C2 00 28 		lw      v0,40(fp)
0x00000060:	00 20 08 25 		or      at,at,zero
0x00000064:	14 40 00 04 		bne     v0,zero,16
0x00000068:	00 20 08 25 		or      at,at,zero
0x0000006C:	00 00 10 21 		addu    v0,zero,zero
0x00000070:	08 00 00 33 		j       0x000000CC
0x000000CC:	03 C0 E8 21 		addu    sp,fp,zero
0x000000D0:	8F BF 00 24 		lw      ra,36(sp)
0x000000D4:	8F BE 00 20 		lw      fp,32(sp)
0x000000D8:	8F B0 00 1C 		lw      s0,28(sp)
0x000000DC:	27 BD 00 28 		addiu   sp,sp,40
0x000000E0:	03 E0 00 08 		jr      ra
0x000000C4:	00 20 08 25 		or      at,at,zero
0x000000C8:	02 02 10 21 		addu    v0,s0,v0
0x000000CC:	03 C0 E8 21 		addu    sp,fp,zero
0x000000D0:	8F BF 00 24 		lw      ra,36(sp)
0x000000D4:	8F BE 00 20 		lw      fp,32(sp)
0x000000D8:	8F B0 00 1C 		lw      s0,28(sp)
0x000000DC:	27 BD 00 28 		addiu   sp,sp,40
0x000000E0:	03 E0 00 08 		jr      ra
0x000000A8:	00 20 08 25 		or      at,at,zero
0x000000AC:	00 40 80 21 		addu    s0,v0,zero
0x000000B0:	8F C2 00 28 		lw      v0,40(fp)
0x000000B4:	00 20 08 25 		or      at,at,zero
0x000000B8:	24 42 FF FE 		addiu   v0,v0,-2
0x000000BC:	00 40 20 21 		addu    a0,v0,zero
0x000000C0:	0C 00 00 11 		jal     0x00000044
0x00000044:	27 BD FF D8 		addiu   sp,sp,-40
0x00000048:	AF BF 00 24 		sw      ra,36(sp)
0x0000004C:	AF BE 00 20 		sw      fp,32(sp)
0x00000050:	AF B0 00 1C 		sw      s0,28(sp)
0x00000054:	03 A0 F0 21 		addu    fp,sp,zero
0x00000058:	AF C4 00 28 		sw      a0,40(fp)
0x0000005C:	8F C2 00 28 		lw      v0,40(fp)
0x00000060:	00 20 08 25 		or      at,at,zero
0x00000064:	14 40 00 04 		bne     v0,zero,16
0x00000078:	8F C3 00 28 		lw      v1,40(fp)
0x0000007C:	24 02 00 01 		addiu   v0,zero,1
0x00000080:	14 62 00 04 		bne     v1,v0,16
0x00000084:	00 20 08 25 		or      at,at,zero
0x00000088:	24 02 00 01 		addiu   v0,zero,1
0x0000008C:	08 00 00 33 		j       0x000000CC
0x000000CC:	03 C0 E8 21 		addu    sp,fp,zero
0x000000D0:	8F BF 00 24 		lw      ra,36(sp)
0x000000D4:	8F BE 00 20 		lw      fp,32(sp)
0x000000D8:	8F B0 00 1C 		lw      s0,28(sp)
0x000000DC:	27 BD 00 28 		addiu   sp,sp,40
0x000000E0:	03 E0 00 08 		jr      ra
0x000000C4:	00 20 08 25 		or      at,at,zero
0x000000C8:	02 02 10 21 		addu    v0,s0,v0
0x000000CC:	03 C0 E8 21 		addu    sp,fp,zero
0x000000D0:	8F BF 00 24 		lw      ra,36(sp)
0x000000D4:	8F BE 00 20 		lw      fp,32(sp)
0x000000D8:	8F B0 00 1C 		lw      s0,28(sp)
0x000000DC:	27 BD 00 28 		addiu   sp,sp,40
0x000000E0:	03 E0 00 08 		jr      ra
0x000000A8:	00 20 08 25 		or      at,at,zero
0x000000AC:	00 40 80 21 		addu    s0,v0,zero
0x000000B0:	8F C2 00 28 		lw      v0,40(fp)
0x000000B4:	00 20 08 25 		or      at,at,zero
0x000000B8:	24 42 FF FE 		addiu   v0,v0,-2
0x000000BC:	00 40 20 21 		addu    a0,v0,zero
0x000000C0:	0C 00 00 11 		jal     0x00000044
0x00000044:	27 BD FF D8 		addiu   sp,sp,-40
0x00000048:	AF BF 00 24 		sw      ra,36(sp)
0x0000004C:	AF BE 00 20 		sw      fp,32(sp)
0x00000050:	AF B0 00 1C 		sw      s0,28(sp)
0x00000054:	03 A0 F0 21 		addu    fp,sp,zero
0x00000058:	AF C4 00 28 		sw      a0,40(fp)
0x0000005C:	8F C2 00 28 		lw      v0,40(fp)
0x00000060:	00 20 08 25 		or      at,at,zero
0x00000064:	14 40 00 04 		bne     v0,zero,16
0x00000078:	8F C3 00 28 		lw      v1,40(fp)
0x0000007C:	24 02 00 01 		addiu   v0,zero,1
0x00000080:	14 62 00 04 		bne     v1,v0,16
0x00000094:	8F C2 00 28 		lw      v0,40(fp)
0x00000098:	00 20 08 25 		or      at,at,zero
0x0000009C:	24 42 FF FF 		addiu   v0,v0,-1
0x000000A0:	00 40 20 21 		addu    a0,v0,zero
0x000000A4:	0C 00 00 11 		jal     0x00000044
0x00000044:	27 BD FF D8 		addiu   sp,sp,-40
0x00000048:	AF BF 00 24 		sw      ra,36(sp)
0x0000004C:	AF BE 00 20 		sw      fp,32(sp)
0x00000050:	AF B0 00 1C 		sw      s0,28(sp)
0x00000054:	03 A0 F0 21 		addu    fp,sp,zero
0x00000058:	AF C4 00 28 		sw      a0,40(fp)
0x0000005C:	8F C2 00 28 		lw      v0,40(fp)
0x00000060:	00 20 08 25 		or      at,at,zero
0x00000064:	14 40 00 04 		bne     v0,zero,16
0x00000078:	8F C3 00 28 		lw      v1,40(fp)
0x0000007C:	24 02 00 01 		addiu   v0,zero,1
0x00000080:	14 62 00 04 		bne     v1,v0,16
0x00000084:	00 20 08 25 		or      at,at,zero
0x00000088:	24 02 00 01 		addiu   v0,zero,1
0x0000008C:	08 00 00 33 		j       0x000000CC
0x000000CC:	03 C0 E8 21 		addu    sp,fp,zero
0x000000D0:	8F BF 00 24 		lw      ra,36(sp)
0x000000D4:	8F BE 00 20 		lw      fp,32(sp)
0x000000D8:	8F B0 00 1C 		lw      s0,28(sp)
0x000000DC:	27 BD 00 28 		addiu   sp,sp,40
0x000000E0:	03 E0 00 08 		jr      ra
0x000000A8:	00 20 08 25 		or      at,at,zero
0x000000AC:	00 40 80 21 		addu    s0,v0,zero
0x000000B0:	8F C2 00 28 		lw      v0,40(fp)
0x000000B4:	00 20 08 25 		or      at,at,zero
0x000000B8:	24 42 FF FE 		addiu   v0,v0,-2
0x000000BC:	00 40 20 21 		addu    a0,v0,zero
0x000000C0:	0C 00 00 11 		jal     0x00000044
0x00000044:	27 BD FF D8 		addiu   sp,sp,-40
0x00000048:	AF BF 00 24 		sw      ra,36(sp)
0x0000004C:	AF BE 00 20 		sw      fp,32(sp)
0x00000050:	AF B0 00 1C 		sw      s0,28(sp)
0x00000054:	03 A0 F0 21 		addu    fp,sp,zero
0x00000058:	AF C4 00 28 		sw      a0,40(fp)
0x0000005C:	8F C2 00 28 		lw      v0,40(fp)
0x00000060:	00 20 08 25 		or      at,at,zero
0x00000064:	14 40 00 04 		bne     v0,zero,16
0x00000068:	00 20 08 25 		or      at,at,zero
0x0000006C:	00 00 10 21 		addu    v0,zero,zero
0x00000070:	08 00 00 33 		j       0x000000CC
0x000000CC:	03 C0 E8 21 		addu    sp,fp,zero
0x000000D0:	8F BF 00 24 		lw      ra,36(sp)
0x000000D4:	8F BE 00 20 		lw      fp,32(sp)
0x000000D8:	8F B0 00 1C 		lw      s0,28(sp)
0x000000DC:	27 BD 00 28 		addiu   sp,sp,40
0x000000E0:	03 E0 00 08 		jr      ra
0x000000C4:	00 20 08 25 		or      at,at,zero
0x000000C8:	02 02 10 21 		addu    v0,s0,v0
0x000000CC:	03 C0 E8 21 		addu    sp,fp,zero
0x000000D0:	8F BF 00 24 		lw      ra,36(sp)
0x000000D4:	8F BE 00 20 		lw      fp,32(sp)
0x000000D8:	8F B0 00 1C 		lw      s0,28(sp)
0x000000DC:	27 BD 00 28 		addiu   sp,sp,40
0x000000E0:	03 E0 00 08 		jr      ra
0x000000C4:	00 20 08 25 		or      at,at,zero
0x000000C8:	02 02 10 21 		addu    v0,s0,v0
0x000000CC:	03 C0 E8 21 		addu    sp,fp,zero
0x000000D0:	8F BF 00 24 		lw      ra,36(sp)
0x000000D4:	8F BE 00 20 		lw      fp,32(sp)
0x000000D8:	8F B0 00 1C 		lw      s0,28(sp)
0x000000DC:	27 BD 00 28 		addiu   sp,sp,40
0x000000E0:	03 E0 00 08 		jr      ra
0x000000A8:	00 20 08 25 		or      at,at,zero
0x000000AC:	00 40 80 21 		addu    s0,v0,zero
0x000000B0:	8F C2 00 28 		lw      v0,40(fp)
0x000000B4:	00 20 08 25 		or      at,at,zero
0x000000B8:	24 42 FF FE 		addiu   v0,v0,-2
0x000000BC:	00 40 20 21 		addu    a0,v0,zero
0x000000C0:	0C 00 00 11 		jal     0x00000044
0x00000044:	27 BD FF D8 		addiu   sp,sp,-40
0x00000048:	AF BF 00 24 		sw      ra,36(sp)
0x0000004C:	AF BE 00 20 		sw      fp,32(sp)
0x00000050:	AF B0 00 1C 		sw      s0,28(sp)
0x00000054:	03 A0 F0 21 		addu    fp,sp,zero
0x00000058:	AF C4 00 28 		sw      a0,40(fp)
0x0000005C:	8F C2 00 28 		lw      v0,40(fp)
0x00000060:	00 20 08 25 		or      at,at,zero
0x00000064:	14 40 00 04 		bne     v0,zero,16
0x00000078:	8F C3 00 28 		lw      v1,40(fp)
0x0000007C:	24 02 00 01 		addiu   v0,zero,1
0x00000080:	14 62 00 04 		bne     v1,v0,16
0x00000094:	8F C2 00 28 		lw      v0,40(fp)
0x00000098:	00 20 08 25 		or      at,at,zero
0x0000009C:	24 42 FF FF 		addiu   v0,v0,-1
0x000000A0:	00 40 20 21 		addu    a0,v0,zero
0x000000A4:	0C 00 00 11 		jal     0x00000044
0x00000044:	27 BD FF D8 		addiu   sp,sp,-40
0x00000048:	AF BF 00 24 		sw      ra,36(sp)
0x0000004C:	AF BE 00 20 		sw      fp,32(sp)
0x00000050:	AF B0 00 1C 		sw      s0,28(sp)
0x00000054:	03 A0 F0 21 		addu    fp,sp,zero
0x00000058:	AF C4 00 28 		sw      a0,40(fp)
0x0000005C:	8F C2 00 28 		lw      v0,40(fp)
0x00000060:	00 20 08 25 		or      at,at,zero
0x00000064:	14 40 00 04 		bne     v0,zero,16
0x00000078:	8F C3 00 28 		lw      v1,40(fp)
0x0000007C:	24 02 00 01 		addiu   v0,zero,1
0x00000080:	14 62 00 04 		bne     v1,v0,16
0x00000094:	8F C2 00 28 		lw      v0,40(fp)
0x00000098:	00 20 08 25 		or      at,at,zero
0x0000009C:	24 42 FF FF 		addiu   v0,v0,-1
0x000000A0:	00 40 20 21 		addu    a0,v0,zero
0x000000A4:	0C 00 00 11 		jal     0x00000044
0x00000044:	27 BD FF D8 		addiu   sp,sp,-40
0x00000048:	AF BF 00 24 		sw      ra,36(sp)
0x0000004C:	AF BE 00 20 		sw      fp,32(sp)
0x00000050:	AF B0 00 1C 		sw      s0,28(sp)
0x00000054:	03 A0 F0 21 		addu    fp,sp,zero
0x00000058:	AF C4 00 28 		sw      a0,40(fp)
0x0000005C:	8F C2 00 28 		lw      v0,40(fp)
0x00000060:	00 20 08 25 		or      at,at,zero
0x00000064:	14 40 00 04 		bne     v0,zero,16
0x00000078:	8F C3 00 28 		lw      v1,40(fp)
0x0000007C:	24 02 00 01 		addiu   v0,zero,1
0x00000080:	14 62 00 04 		bne     v1,v0,16
0x00000084:	00 20 08 25 		or      at,at,zero
0x00000088:	24 02 00 01 		addiu   v0,zero,1
0x0000008C:	08 00 00 33 		j       0x000000CC
0x000000CC:	03 C0 E8 21 		addu    sp,fp,zero
0x000000D0:	8F BF 00 24 		lw      ra,36(sp)
0x000000D4:	8F BE 00 20 		lw      fp,32(sp)
0x000000D8:	8F B0 00 1C 		lw      s0,28(sp)
0x000000DC:	27 BD 00 28 		addiu   sp,sp,40
0x000000E0:	03 E0 00 08 		jr      ra
0x000000A8:	00 20 08 25 		or      at,at,zero
0x000000AC:	00 40 80 21 		addu    s0,v0,zero
0x000000B0:	8F C2 00 28 		lw      v0,40(fp)
0x000000B4:	00 20 08 25 		or      at,at,zero
0x000000B8:	24 42 FF FE 		addiu   v0,v0,-2
0x000000BC:	00 40 20 21 		addu    a0,v0,zero
0x000000C0:	0C 00 00 11 		jal     0x00000044
0x00000044:	27 BD FF D8 		addiu   sp,sp,-40
0x00000048:	AF BF 00 24 		sw      ra,36(sp)
0x0000004C:	AF BE 00 20 		sw      fp,32(sp)
0x00000050:	AF B0 00 1C 		sw      s0,28(sp)
0x00000054:	03 A0 F0 21 		addu    fp,sp,zero
0x00000058:	AF C4 00 28 		sw      a0,40(fp)
0x0000005C:	8F C2 00 28 		lw      v0,40(fp)
0x00000060:	00 20 08 25 		or      at,at,zero
0x00000064:	14 40 00 04 		bne     v0,zero,16
0x00000068:	00 20 08 25 		or      at,at,zero
0x0000006C:	00 00 10 21 		addu    v0,zero,zero
0x00000070:	08 00 00 33 		j       0x000000CC
0x000000CC:	03 C0 E8 21 		addu    sp,fp,zero
0x000000D0:	8F BF 00 24 		lw      ra,36(sp)
0x000000D4:	8F BE 00 20 		lw      fp,32(sp)
0x000000D8:	8F B0 00 1C 		lw      s0,28(sp)
0x000000DC:	27 BD 00 28 		addiu   sp,sp,40
0x000000E0:	03 E0 00 08 		jr      ra
0x000000C4:	00 20 08 25 		or      at,at,zero
0x000000C8:	02 02 10 21 		addu    v0,s0,v0
0x000000CC:	03 C0 E8 21 		addu    sp,fp,zero
0x000000D0:	8F BF 00 24 		lw      ra,36(sp)
0x000000D4:	8F BE 00 20 		lw      fp,32(sp)
0x000000D8:	8F B0 00 1C 		lw      s0,28(sp)
0x000000DC:	27 BD 00 28 		addiu   sp,sp,40
0x000000E0:	03 E0 00 08 		jr      ra
0x000000A8:	00 20 08 25 		or      at,at,zero
0x000000AC:	00 40 80 21 		addu    s0,v0,zero
0x000000B0:	8F C2 00 28 		lw      v0,40(fp)
0x000000B4:	00 20 08 25 		or      at,at,zero
0x000000B8:	24 42 FF FE 		addiu   v0,v0,-2
0x000000BC:	00 40 20 21 		addu    a0,v0,zero
0x000000C0:	0C 00 00 11 		jal     0x00000044
0x00000044:	27 BD FF D8 		addiu   sp,sp,-40
0x00000048:	AF BF 00 24 		sw      ra,36(sp)
0x0000004C:	AF BE 00 20 		sw      fp,32(sp)
0x00000050:	AF B0 00 1C 		sw      s0,28(sp)
0x00000054:	03 A0 F0 21 		addu    fp,sp,zero
0x00000058:	AF C4 00 28 		sw      a0,40(fp)
0x0000005C:	8F C2 00 28 		lw      v0,40(fp)
0x00000060:	00 20 08 25 		or      at,at,zero
0x00000064:	14 40 00 04 		bne     v0,zero,16
0x00000078:	8F C3 00 28 		lw      v1,40(fp)
0x0000007C:	24 02 00 01 		addiu   v0,zero,1
0x00000080:	14 62 00 04 		bne     v1,v0,16
0x00000084:	00 20 08 25 		or      at,at,zero
0x00000088:	24 02 00 01 		addiu   v0,zero,1
0x0000008C:	08 00 00 33 		j       0x000000CC
0x000000CC:	03 C0 E8 21 		addu    sp,fp,zero
0x000000D0:	8F BF 00 24 		lw      ra,36(sp)
0x000000D4:	8F BE 00 20 		lw      fp,32(sp)
0x000000D8:	8F B0 00 1C 		lw      s0,28(sp)
0x000000DC:	27 BD 00 28 		addiu   sp,sp,40
0x000000E0:	03 E0 00 08 		jr      ra
0x000000C4:	00 20 08 25 		or      at,at,zero
0x000000C8:	02 02 10 21 		addu    v0,s0,v0
0x000000CC:	03 C0 E8 21 		addu    sp,fp,zero
0x000000D0:	8F BF 00 24 		lw      ra,36(sp)
0x000000D4:	8F BE 00 20 		lw      fp,32(sp)
0x000000D8:	8F B0 00 1C 		lw      s0,28(sp)
0x000000DC:	27 BD 00 28 		addiu   sp,sp,40
0x000000E0:	03 E0 00 08 		jr      ra
0x000000C4:	00 20 08 25 		or      at,at,zero
0x000000C8:	02 02 10 21 		addu    v0,s0,v0
0x000000CC:	03 C0 E8 21 		addu    sp,fp,zero
0x000000D0:	8F BF 00 24 		lw      ra,36(sp)
0x000000D4:	8F BE 00 20 		lw      fp,32(sp)
0x000000D8:	8F B0 00 1C 		lw      s0,28(sp)
0x000000DC:	27 BD 00 28 		addiu   sp,sp,40
0x000000E0:	03 E0 00 08 		jr      ra
0x000000A8:	00 20 08 25 		or      at,at,zero
0x000000AC:	00 40 80 21 		addu    s0,v0,zero
0x000000B0:	8F C2 00 28 		lw      v0,40(fp)
0x000000B4:	00 20 08 25 		or      at,at,zero
0x000000B8:	24 42 FF FE 		addiu   v0,v0,-2
0x000000BC:	00 40 20 21 		addu    a0,v0,zero
0x000000C0:	0C 00 00 11 		jal     0x00000044
0x00000044:	27 BD FF D8 		addiu   sp,sp,-40
0x00000048:	AF BF 00 24 		sw      ra,36(sp)
0x0000004C:	AF BE 00 20 		sw      fp,32(sp)
0x00000050:	AF B0 00 1C 		sw      s0,28(sp)
0x00000054:	03 A0 F0 21 		addu    fp,sp,zero
0x00000058:	AF C4 00 28 		sw      a0,40(fp)
0x0000005C:	8F C2 00 28 		lw      v0,40(fp)
0x00000060:	00 20 08 25 		or      at,at,zero
0x00000064:	14 40 00 04 		bne     v0,zero,16
0x00000078:	8F C3 00 28 		lw      v1,40(fp)
0x0000007C:	24 02 00 01 		addiu   v0,zero,1
0x00000080:	14 62 00 04 		bne     v1,v0,16
0x00000094:	8F C2 00 28 		lw      v0,40(fp)
0x00000098:	00 20 08 25 		or      at,at,zero
0x0000009C:	24 42 FF FF 		addiu   v0,v0,-1
0x000000A0:	00 40 20 21 		addu    a0,v0,zero
0x000000A4:	0C 00 00 11 		jal     0x00000044
0x00000044:	27 BD FF D8 		addiu   sp,sp,-40
0x00000048:	AF BF 00 24 		sw      ra,36(sp)
0x0000004C:	AF BE 00 20 		sw      fp,32(sp)
0x00000050:	AF B0 00 1C 		sw      s0,28(sp)
0x00000054:	03 A0 F0 21 		addu    fp,sp,zero
0x00000058:	AF C4 00 28 		sw      a0,40(fp)
0x0000005C:	8F C2 00 28 		lw      v0,40(fp)
0x00000060:	00 20 08 25 		or      at,at,zero
0x00000064:	14 40 00 04 		bne     v0,zero,16
0x00000078:	8F C3 00 28 		lw      v1,40(fp)
0x0000007C:	24 02 00 01 		addiu   v0,zero,1
0x00000080:	14 62 00 04 		bne     v1,v0,16
0x00000094:	8F C2 00 28 		lw      v0,40(fp)
0x00000098:	00 20 08 25 		or      at,at,zero
0x0000009C:	24 42 FF FF 		addiu   v0,v0,-1
0x000000A0:	00 40 20 21 		addu    a0,v0,zero
0x000000A4:	0C 00 00 11 		jal     0x00000044
0x00000044:	27 BD FF D8 		addiu   sp,sp,-40
0x00000048:	AF BF 00 24 		sw      ra,36(sp)
0x0000004C:	AF BE 00 20 		sw      fp,32(sp)
0x00000050:	AF B0 00 1C 		sw      s0,28(sp)
0x00000054:	03 A0 F0 21 		addu    fp,sp,zero
0x00000058:	AF C4 00 28 		sw      a0,40(fp)
0x0000005C:	8F C2 00 28 		lw      v0,40(fp)
0x00000060:	00 20 08 25 		or      at,at,zero
0x00000064:	14 40 00 04 		bne     v0,zero,16
0x00000078:	8F C3 00 28 		lw      v1,40(fp)
0x0000007C:	24 02 00 01 		addiu   v0,zero,1
0x00000080:	14 62 00 04 		bne     v1,v0,16
0x00000094:	8F C2 00 28 		lw      v0,40(fp)
0x00000098:	00 20 08 25 		or      at,at,zero
0x0000009C:	24 42 FF FF 		addiu   v0,v0,-1
0x000000A0:	00 40 20 21 		addu    a0,v0,zero
0x000000A4:	0C 00 00 11 		jal     0x00000044
0x00000044:	27 BD FF D8 		addiu   sp,sp,-40
0x00000048:	AF BF 00 24 		sw      ra,36(sp)
0x0000004C:	AF BE 00 20 		sw      fp,32(sp)
0x00000050:	AF B0 00 1C 		sw      s0,28(sp)
0x00000054:	03 A0 F0 21 		addu    fp,sp,zero
0x00000058:	AF C4 00 28 		sw      a0,40(fp)
0x0000005C:	8F C2 00 28 		lw      v0,40(fp)
0x00000060:	00 20 08 25 		or      at,at,zero
0x00000064:	14 40 00 04 		bne     v0,zero,16
0x00000078:	8F C3 00 28 		lw      v1,40(fp)
0x0000007C:	24 02 00 01 		addiu   v0,zero,1
0x00000080:	14 62 00 04 		bne     v1,v0,16
0x00000084:	00 20 08 25 		or      at,at,zero
0x00000088:	24 02 00 01 		addiu   v0,zero,1
0x0000008C:	08 00 00 33 		j       0x000000CC
0x000000CC:	03 C0 E8 21 		addu    sp,fp,zero
0x000000D0:	8F BF 00 24 		lw      ra,36(sp)
0x000000D4:	8F BE 00 20 		lw      fp,32(sp)
0x000000D8:	8F B0 00 1C 		lw      s0,28(sp)
0x000000DC:	27 BD 00 28 		addiu   sp,sp,40
0x000000E0:	03 E0 00 08 		jr      ra
0x000000A8:	00 20 08 25 		or      at,at,zero
0x000000AC:	00 40 80 21 		addu    s0,v0,zero
0x000000B0:	8F C2 00 28 		lw      v0,40(fp)
0x000000B4:	00 20 08 25 		or      at,at,zero
0x000000B8:	24 42 FF FE 		addiu   v0,v0,-2
0x000000BC:	00 40 20 21 		addu    a0,v0,zero
0x000000C0:	0C 00 00 11 		jal     0x00000044
0x00000044:	27 BD FF D8 		addiu   sp,sp,-40
0x00000048:	AF BF 00 24 		sw      ra,36(sp)
0x0000004C:	AF BE 00 20 		sw      fp,32(sp)
0x00000050:	AF B0 00 1C 		sw      s0,28(sp)
0x00000054:	03 A0 F0 21 		addu    fp,sp,zero
0x00000058:	AF C4 00 28 		sw      a0,40(fp)
0x0000005C:	8F C2 00 28 		lw      v0,40(fp)
0x00000060:	00 20 08 25 		or      at,at,zero
0x00000064:	14 40 00 04 		bne     v0,zero,16
0x00000068:	00 20 08 25 		or      at,at,zero
0x0000006C:	00 00 10 21 		addu    v0,zero,zero
0x00000070:	08 00 00 33 		j       0x000000CC
0x000000CC:	03 C0 E8 21 		addu    sp,fp,zero
0x000000D0:	8F BF 00 24 		lw      ra,36(sp)
0x000000D4:	8F BE 00 20 		lw      fp,32(sp)
0x000000D8:	8F B0 00 1C 		lw      s0,28(sp)
0x000000DC:	27 BD 00 28 		addiu   sp,sp,40
0x000000E0:	03 E0 00 08 		jr      ra
0x000000C4:	00 20 08 25 		or      at,at,zero
0x000000C8:	02 02 10 21 		addu    v0,s0,v0
0x000000CC:	03 C0 E8 21 		addu    sp,fp,zero
0x000000D0:	8F BF 00 24 		lw      ra,36(sp)
0x000000D4:	8F BE 00 20 		lw      fp,32(sp)
0x000000D8:	8F B0 00 1C 		lw      s0,28(sp)
0x000000DC:	27 BD 00 28 		addiu   sp,sp,40
0x000000E0:	03 E0 00 08 		jr      ra
0x000000A8:	00 20 08 25 		or      at,at,zero
0x000000AC:	00 40 80 21 		addu    s0,v0,zero
0x000000B0:	8F C2 00 28 		lw      v0,40(fp)
0x000000B4:	00 20 08 25 		or      at,at,zero
0x000000B8:	24 42 FF FE 		addiu   v0,v0,-2
0x000000BC:	00 40 20 21 		addu    a0,v0,zero
0x000000C0:	0C 00 00 11 		jal     0x00000044
0x00000044:	27 BD FF D8 		addiu   sp,sp,-40
0x00000048:	AF BF 00 24 		sw      ra,36(sp)
0x0000004C:	AF BE 00 20 		sw      fp,32(sp)
0x00000050:	AF B0 00 1C 		sw      s0,28(sp)
0x00000054:	03 A0 F0 21 		addu    fp,sp,zero
0x00000058:	AF C4 00 28 		sw      a0,40(fp)
0x0000005C:	8F C2 00 28 		lw      v0,40(fp)
0x00000060:	00 20 08 25 		or      at,at,zero
0x00000064:	14 40 00 04 		bne     v0,zero,16
0x00000078:	8F C3 00 28 		lw      v1,40(fp)
0x0000007C:	24 02 00 01 		addiu   v0,zero,1
0x00000080:	14 62 00 04 		bne     v1,v0,16
0x00000084:	00 20 08 25 		or      at,at,zero
0x00000088:	24 02 00 01 		addiu   v0,zero,1
0x0000008C:	08 00 00 33 		j       0x000000CC
0x000000CC:	03 C0 E8 21 		addu    sp,fp,zero
0x000000D0:	8F BF 00 24 		lw      ra,36(sp)
0x000000D4:	8F BE 00 20 		lw      fp,32(sp)
0x000000D8:	8F B0 00 1C 		lw      s0,28(sp)
0x000000DC:	27 BD 00 28 		addiu   sp,sp,40
0x000000E0:	03 E0 00 08 		jr      ra
0x000000C4:	00 20 08 25 		or      at,at,zero
0x000000C8:	02 02 10 21 		addu    v0,s0,v0
0x000000CC:	03 C0 E8 21 		addu    sp,fp,zero
0x000000D0:	8F BF 00 24 		lw      ra,36(sp)
0x000000D4:	8F BE 00 20 		lw      fp,32(sp)
0x000000D8:	8F B0 00 1C 		lw      s0,28(sp)
0x000000DC:	27 BD 00 28 		addiu   sp,sp,40
0x000000E0:	03 E0 00 08 		jr      ra
0x000000A8:	00 20 08 25 		or      at,at,zero
0x000000AC:	00 40 80 21 		addu    s0,v0,zero
0x000000B0:	8F C2 00 28 		lw      v0,40(fp)
0x000000B4:	00 20 08 25 		or      at,at,zero
0x000000B8:	24 42 FF FE 		addiu   v0,v0,-2
0x000000BC:	00 40 20 21 		addu    a0,v0,zero
0x000000C0:	0C 00 00 11 		jal     0x00000044
0x00000044:	27 BD FF D8 		addiu   sp,sp,-40
0x00000048:	AF BF 00 24 		sw      ra,36(sp)
0x0000004C:	AF BE 00 20 		sw      fp,32(sp)
0x00000050:	AF B0 00 1C 		sw      s0,28(sp)
0x00000054:	03 A0 F0 21 		addu    fp,sp,zero
0x00000058:	AF C4 00 28 		sw      a0,40(fp)
0x0000005C:	8F C2 00 28 		lw      v0,40(fp)
0x00000060:	00 20 08 25 		or      at,at,zero
0x00000064:	14 40 00 04 		bne     v0,zero,16
0x00000078:	8F C3 00 28 		lw      v1,40(fp)
0x0000007C:	24 02 00 01 		addiu   v0,zero,1
0x00000080:	14 62 00 04 		bne     v1,v0,16
0x00000094:	8F C2 00 28 		lw      v0,40(fp)
0x00000098:	00 20 08 25 		or      at,at,zero
0x0000009C:	24 42 FF FF 		addiu   v0,v0,-1
0x000000A0:	00 40 20 21 		addu    a0,v0,zero
0x000000A4:	0C 00 00 11 		jal     0x00000044
0x00000044:	27 BD FF D8 		addiu   sp,sp,-40
0x00000048:	AF BF 00 24 		sw      ra,36(sp)
0x0000004C:	AF BE 00 20 		sw      fp,32(sp)
0x00000050:	AF B0 00 1C 		sw      s0,28(sp)
0x00000054:	03 A0 F0 21 		addu    fp,sp,zero
0x00000058:	AF C4 00 28 		sw      a0,40(fp)
0x0000005C:	8F C2 00 28 		lw      v0,40(fp)
0x00000060:	00 20 08 25 		or      at,at,zero
0x00000064:	14 40 00 04 		bne     v0,zero,16
0x00000078:	8F C3 00 28 		lw      v1,40(fp)
0x0000007C:	24 02 00 01 		addiu   v0,zero,1
0x00000080:	14 62 00 04 		bne     v1,v0,16
0x00000084:	00 20 08 25 		or      at,at,zero
0x00000088:	24 02 00 01 		addiu   v0,zero,1
0x0000008C:	08 00 00 33 		j       0x000000CC
0x000000CC:	03 C0 E8 21 		addu    sp,fp,zero
0x000000D0:	8F BF 00 24 		lw      ra,36(sp)
0x000000D4:	8F BE 00 20 		lw      fp,32(sp)
0x000000D8:	8F B0 00 1C 		lw      s0,28(sp)
0x000000DC:	27 BD 00 28 		addiu   sp,sp,40
0x000000E0:	03 E0 00 08 		jr      ra
0x000000A8:	00 20 08 25 		or      at,at,zero
0x000000AC:	00 40 80 21 		addu    s0,v0,zero
0x000000B0:	8F C2 00 28 		lw      v0,40(fp)
0x000000B4:	00 20 08 25 		or      at,at,zero
0x000000B8:	24 42 FF FE 		addiu   v0,v0,-2
0x000000BC:	00 40 20 21 		addu    a0,v0,zero
0x000000C0:	0C 00 00 11 		jal     0x00000044
0x00000044:	27 BD FF D8 		addiu   sp,sp,-40
0x00000048:	AF BF 00 24 		sw      ra,36(sp)
0x0000004C:	AF BE 00 20 		sw      fp,32(sp)
0x00000050:	AF B0 00 1C 		sw      s0,28(sp)
0x00000054:	03 A0 F0 21 		addu    fp,sp,zero
0x00000058:	AF C4 00 28 		sw      a0,40(fp)
0x0000005C:	8F C2 00 28 		lw      v0,40(fp)
0x00000060:	00 20 08 25 		or      at,at,zero
0x00000064:	14 40 00 04 		bne     v0,zero,16
0x00000068:	00 20 08 25 		or      at,at,zero
0x0000006C:	00 00 10 21 		addu    v0,zero,zero
0x00000070:	08 00 00 33 		j       0x000000CC
0x000000CC:	03 C0 E8 21 		addu    sp,fp,zero
0x000000D0:	8F BF 00 24 		lw      ra,36(sp)
0x000000D4:	8F BE 00 20 		lw      fp,32(sp)
0x000000D8:	8F B0 00 1C 		lw      s0,28(sp)
0x000000DC:	27 BD 00 28 		addiu   sp,sp,40
0x000000E0:	03 E0 00 08 		jr      ra
0x000000C4:	00 20 08 25 		or      at,at,zero
0x000000C8:	02 02 10 21 		addu    v0,s0,v0
0x000000CC:	03 C0 E8 21 		addu    sp,fp,zero
0x000000D0:	8F BF 00 24 		lw      ra,36(sp)
0x000000D4:	8F BE 00 20 		lw      fp,32(sp)
0x000000D8:	8F B0 00 1C 		lw      s0,28(sp)
0x000000DC:	27 BD 00 28 		addiu   sp,sp,40
0x000000E0:	03 E0 00 08 		jr      ra
0x000000C4:	00 20 08 25 		or      at,at,zero
0x000000C8:	02 02 10 21 		addu    v0,s0,v0
0x000000CC:	03 C0 E8 21 		addu    sp,fp,zero
0x000000D0:	8F BF 00 24 		lw      ra,36(sp)
0x000000D4:	8F BE 00 20 		lw      fp,32(sp)
0x000000D8:	8F B0 00 1C 		lw      s0,28(sp)
0x000000DC:	27 BD 00 28 		addiu   sp,sp,40
0x000000E0:	03 E0 00 08 		jr      ra
0x000000C4:	00 20 08 25 		or      at,at,zero
0x000000C8:	02 02 10 21 		addu    v0,s0,v0
0x000000CC:	03 C0 E8 21 		addu    sp,fp,zero
0x000000D0:	8F BF 00 24 		lw      ra,36(sp)
0x000000D4:	8F BE 00 20 		lw      fp,32(sp)
0x000000D8:	8F B0 00 1C 		lw      s0,28(sp)
0x000000DC:	27 BD 00 28 		addiu   sp,sp,40
0x000000E0:	03 E0 00 08 		jr      ra
0x000000C4:	00 20 08 25 		or      at,at,zero
0x000000C8:	02 02 10 21 		addu    v0,s0,v0
0x000000CC:	03 C0 E8 21 		addu    sp,fp,zero
0x000000D0:	8F BF 00 24 		lw      ra,36(sp)
0x000000D4:	8F BE 00 20 		lw      fp,32(sp)
0x000000D8:	8F B0 00 1C 		lw      s0,28(sp)
0x000000DC:	27 BD 00 28 		addiu   sp,sp,40
0x000000E0:	03 E0 00 08 		jr      ra
0x000000C4:	00 20 08 25 		or      at,at,zero
0x000000C8:	02 02 10 21 		addu    v0,s0,v0
0x000000CC:	03 C0 E8 21 		addu    sp,fp,zero
0x000000D0:	8F BF 00 24 		lw      ra,36(sp)
0x000000D4:	8F BE 00 20 		lw      fp,32(sp)
0x000000D8:	8F B0 00 1C 		lw      s0,28(sp)
0x000000DC:	27 BD 00 28 		addiu   sp,sp,40
0x000000E0:	03 E0 00 08 		jr      ra
0x00000018:	00 20 08 25 		or      at,at,zero
0x0000001C:	00 40 18 21 		addu    v1,v0,zero
0x00000020:	3C 02 00 01 		lui     v0, 0001
0x00000024:	AC 43 80 00 		sw      v1,-32768(v0)
0x00000028:	00 00 10 21 		addu    v0,zero,zero
0x0000002C:	03 C0 E8 21 		addu    sp,fp,zero
0x00000030:	8F BF 00 1C 		lw      ra,28(sp)
0x00000034:	8F BE 00 18 		lw      fp,24(sp)
0x00000038:	27 BD 00 20 		addiu   sp,sp,32
0x0000003C:	03 E0 00 08 		jr      ra

# registers
---------------------------------------------------------------------
Zero:         0 | AT:           0 | V0:           0 | V1:          55
A0:           0 | A1:           0 | A2:           0 | A3:           0
T0:           0 | T1:           0 | T2:           0 | T3:           0
T4:           0 | T5:           0 | T6:           0 | T7:           0
S0:           0 | S1:           0 | S2:           0 | S3:           0
S4:           0 | S5:           0 | S6:           0 | S7:           0
T8:           0 | T9:           0 | K0:           0 | K1:           0
GP:           0 | SP:      0xFFFF | FP:      0x0000 | RA:           0
PC:  0x00000040 | HI:           0 | LO:           0

# data
----------------------------------------------------------------------------
0x8000:    37 00 00 00 00 00 00 00 00 00 00 00 00 00 00 00  7...............
0x8010:    00 00 00 00 00 00 00 00 00 00 00 00 00 00 00 00  ................
0x8020:    00 00 00 00 00 00 00 00 00 00 00 00 00 00 00 00  ................
0x8030:    00 00 00 00 00 00 00 00 00 00 00 00 00 00 00 00  ................
0x8040:    00 00 00 00 00 00 00 00 00 00 00 00 00 00 00 00  ................
0x8050:    00 00 00 00 00 00 00 00 00 00 00 00 00 00 00 00  ................
0x8060:    00 00 00 00 00 00 00 00 00 00 00 00 00 00 00 00  ................
0x8070:    00 00 00 00 00 00 00 00 00 00 00 00 00 00 00 00  ................
0x8080:    00 00 00 00 00 00 00 00 00 00 00 00 00 00 00 00  ................
0x8090:    00 00 00 00 00 00 00 00 00 00 00 00 00 00 00 00  ................
0x80A0:    00 00 00 00 00 00 00 00 00 00 00 00 00 00 00 00  ................
0x80B0:    00 00 00 00 00 00 00 00 00 00 00 00 00 00 00 00  ................
0x80C0:    00 00 00 00 00 00 00 00 00 00 00 00 00 00 00 00  ................
0x80D0:    00 00 00 00 00 00 00 00 00 00 00 00 00 00 00 00  ................
0x80E0:    00 00 00 00 00 00 00 00 00 00 00 00 00 00 00 00  ................
0x80F0:    00 00 00 00 00 00 00 00 00 00 00 00 00 00 00 00  ................

# stack
----------------------------------------------------------------------------
0xFF00:    00 00 00 00 00 00 00 00 00 00 00 01 00 00 00 17  ................
0xFF10:    FF 00 00 C4 00 00 00 00 00 00 00 00 00 00 00 00  ................
0xFF20:    00 00 00 00 00 00 00 00 00 00 00 00 00 00 00 00  ................
0xFF30:    00 00 00 02 00 00 00 3F FF 00 00 C4 00 00 00 02  .......?........
0xFF40:    00 00 00 00 00 00 00 00 00 00 00 00 00 00 00 00  ................
0xFF50:    00 00 00 00 00 00 00 00 00 00 00 05 00 00 00 67  ...............g
0xFF60:    FF 00 00 C4 00 00 00 04 00 00 00 00 00 00 00 00  ................
0xFF70:    00 00 00 00 00 00 00 00 00 00 00 00 00 00 00 00  ................
0xFF80:    00 00 00 0D 00 00 00 8F FF 00 00 C4 00 00 00 06  ................
0xFF90:    00 00 00 00 00 00 00 00 00 00 00 00 00 00 00 00  ................
0xFFA0:    00 00 00 00 00 00 00 00 00 00 00 22 00 00 00 B7  ..........."....
0xFFB0:    FF 00 00 C4 00 00 00 08 00 00 00 00 00 00 00 00  ................
0xFFC0:    00 00 00 00 00 00 00 00 00 00 00 00 00 00 00 00  ................
0xFFD0:    00 00 00 00 00 00 00 DF FF 00 00 18 00 00 00 0A  ................
0xFFE0:    00 00 00 00 00 00 00 00 00 00 00 00 00 00 00 00  ................
0xFFF0:    00 00 00 00 00 00 00 00 00 00 00 00 00 00 00 00  ................
